***********************************************************************
*
*	CODE GENERATION LISTING FOR: clock
*	COMPILER VERSION: 5.22.0.29
*
***********************************************************************

**************************************************
	CODE GENERATOR SUBROUTINES
**************************************************

$$MOD:
300000F0  FB90 F3F1		sdiv r3, r0, r1
300000F4  4359     		mul r1, r1, r3
300000F6  EBC1 0000		rsb r0, r1, r0
300000FA  4770     		bx lr

$$MOD_U:
300000FC  FBB0 F3F1		udiv r3, r0, r1
30000100  4359     		mul r1, r1, r3
30000102  EBC1 0000		rsb r0, r1, r0
30000106  4770     		bx lr

**************************************************
	List function block: EngraveX
**************************************************

FUNCTION_BLOCK EngraveX

        VAR_INPUT
YPOS0 : INT;
XPOS0 : INT;
XPOSACT : INT;
YPOSACT : INT;
	END_VAR

        VAR_OUTPUT
LASERPWM : REAL;
XPOSOUT : INT;
YPOSOUT : INT;
	END_VAR

        VAR_EXTERNAL
	{G:"Global_vars"}
curSeq : INT := 10;
cutDigit : INT;
	END_VAR

END_FUNCTION_BLOCK

30000108  E92D 4040		stmdb sp!, { r6, lr }
3000010C  462E     		mov r6, r5

#0		{SRC:EngraveX}
#1		(*$WAITSWITCH$*)
#2		
#3		
#4			(* IF cutDigit = 0 *)
#5			LD		cutDigit	{LNXT:1|-1|-1}
(*) UNDEF
3000010E  F8DF 7830		ldr r7, [pc, #+2096] ; 0x200002B4
30000112  F9B7 0000		ldrsh r0, [r7]

#6			EQ		0	{LNXT:1|-1|-1}
(*) INT
30000116  2800     		cmp r0, #0
30000118  BF18 2000		nemov r0, #0
3000011C  BF08 2001		eqmov r0, #1

#7			JMPCN	$label0	{LNXT:1|3|54}
(-) BOOL
30000120  2800     		cmp r0, #0
30000122  F000 80FA		beq #500 ; 0x3000031A


#8		
#9			(* THEN *)
#10		
#11		
#12				(* IF curSeq = 20 *)
#13				LD		curSeq	{LNXT:3|-1|-1}
(*) UNDEF
30000126  F8DF 781C		ldr r7, [pc, #+2076] ; 0x200002B6
3000012A  F9B7 0000		ldrsh r0, [r7]

#14				EQ		20	{LNXT:3|-1|-1}
(*) INT
3000012E  2814     		cmp r0, #20
30000130  BF18 2000		nemov r0, #0
30000134  BF08 2001		eqmov r0, #1

#15				JMPCN	$label1	{LNXT:3|4|10}
(-) BOOL
30000138  2800     		cmp r0, #0
3000013A  D00F     		beq #30 ; 0x3000015C


#16		
#17				(* THEN *)
#18		
#19					(* XPOSOUT := XPOS0 + 450; *)
#20					LD		XPOS0	{LNXT:4|5|-1}
(*) UNDEF
3000013E  F8DF 77D0		ldr r7, [pc, #+2000] ; 0x2
30000142  5FF0     		ldrsh r0, [r6, +r7]

#21					ADD		450	{LNXT:4|5|-1}
(*) INT
30000144  F44F 77E1		mov r7, #450 ; 450
30000148  B23F     		sxth r7, r7
3000014A  19C0     		add r0, r0, r7

#22					ST		XPOSOUT	{LNXT:4|5|-1}
(-) INT
3000014C  81B0     		strh r0, [r6, #12]

#23		
#24					(* YPOSOUT := YPOS0 + 450; *)
#25					LD		YPOS0	{LNXT:5|10|-1}
(*) UNDEF
3000014E  F9B6 0000		ldrsh r0, [r6]

#26					ADD		450	{LNXT:5|10|-1}
(*) INT
30000152  F44F 77E1		mov r7, #450 ; 450
30000156  B23F     		sxth r7, r7
30000158  19C0     		add r0, r0, r7

#27					ST		YPOSOUT	{LNXT:5|10|-1}
(-) INT
3000015A  81F0     		strh r0, [r6, #14]

#28		
#29		$label1:
#30				(* END_IF *)
#31		
#32		
#33				(* IF curSeq > 20) AND (curSeq < 100 *)
#34				LD		curSeq	{LNXT:10|-1|-1}
(*) UNDEF
3000015C  F8DF 77E4		ldr r7, [pc, #+2020] ; 0x200002B6
30000160  F9B7 0000		ldrsh r0, [r7]

#35				LT		100	{LNXT:10|-1|-1}
(*) INT
30000164  2864     		cmp r0, #100
30000166  BFA8 2000		gemov r0, #0
3000016A  BFB8 2001		ltmov r0, #1

#36				AND(		curSeq	{LNXT:10|-1|-1}
(*) BOOL
3000016E  B082     		sub sp, sp, #8
30000170  F8CD 0000		str r0, [sp]
30000174  F8DF 77CC		ldr r7, [pc, #+1996] ; 0x200002B6
30000178  F9B7 0000		ldrsh r0, [r7]

#37				GT		20	{LNXT:10|-1|-1}
(*) INT
3000017C  2814     		cmp r0, #20
3000017E  BFD8 2000		lemov r0, #0
30000182  BFC8 2001		gtmov r0, #1

#38				)	{LNXT:10|-1|-1}
(*) BOOL
30000186  4607     		mov r7, r0
30000188  F8DD 0000		ldr r0, [sp]
3000018C  B002     		add sp, sp, #8
3000018E  4038     		and r0, r0, r7

#39				JMPCN	$label2	{LNXT:10|11|13}
(-) BOOL
30000190  2800     		cmp r0, #0
30000192  D00B     		beq #22 ; 0x300001AC


#40		
#41				(* THEN *)
#42		
#43					(* LASERPWM := 0.8; *)
#44					MOVE		0.8,LASERPWM	{LNXT:11|16|-1}
(*) BOOL
30000196  F8DF 07B0		ldr r0, [pc, #+1968] ; 0x3F4CCCCD = 0.800000
3000019A  EE00 0A10		fmsr s0, r0
3000019E  F8DF 777C		ldr r7, [pc, #+1916] ; 0x8
300001A2  19BF     		add r7, r7, r6
300001A4  ED87 0A00		fsts s0, [r7]

#45					JMP		$label3	{LNXT:10|11|13}
(-) REAL
300001A8  E009     		b #18 ; 0x300001BE


#46		$label2:
#47		
#48				(* ELSE *)
#49		
#50					(* LASERPWM := 0.0; *)
#51					MOVE		0.0,LASERPWM	{LNXT:13|16|-1}
(*) REAL
300001AC  F8DF 075C		ldr r0, [pc, #+1884] ; 0x0 = 0.000000
300001B0  EE00 0A10		fmsr s0, r0
300001B4  F8DF 7764		ldr r7, [pc, #+1892] ; 0x8
300001B8  19BF     		add r7, r7, r6
300001BA  ED87 0A00		fsts s0, [r7]

#52		
#53		$label3:
#54				(* END_IF *)
#55		
#56		
#57				(* IF curSeq = 21 *)
#58				LD		curSeq	{LNXT:16|-1|-1}
(*) UNDEF
300001BE  F8DF 7784		ldr r7, [pc, #+1924] ; 0x200002B6
300001C2  F9B7 0000		ldrsh r0, [r7]

#59				EQ		21	{LNXT:16|-1|-1}
(*) INT
300001C6  2815     		cmp r0, #21
300001C8  BF18 2000		nemov r0, #0
300001CC  BF08 2001		eqmov r0, #1

#60				JMPCN	$label4	{LNXT:16|17|21}
(-) BOOL
300001D0  2800     		cmp r0, #0
300001D2  D00F     		beq #30 ; 0x300001F4


#61		
#62				(* THEN *)
#63		
#64					(* XPOSOUT := XPOS0 + 2505; *)
#65					LD		XPOS0	{LNXT:17|18|-1}
(*) UNDEF
300001D6  F8DF 7738		ldr r7, [pc, #+1848] ; 0x2
300001DA  5FF0     		ldrsh r0, [r6, +r7]

#66					ADD		2505	{LNXT:17|18|-1}
(*) INT
300001DC  F8DF 775C		ldr r7, [pc, #+1884] ; 0x9C9
300001E0  463F     		mov r7, r7
300001E2  19C0     		add r0, r0, r7

#67					ST		XPOSOUT	{LNXT:17|18|-1}
(-) INT
300001E4  81B0     		strh r0, [r6, #12]

#68		
#69					(* YPOSOUT := YPOS0 + 450; *)
#70					LD		YPOS0	{LNXT:18|21|-1}
(*) UNDEF
300001E6  F9B6 0000		ldrsh r0, [r6]

#71					ADD		450	{LNXT:18|21|-1}
(*) INT
300001EA  F44F 77E1		mov r7, #450 ; 450
300001EE  B23F     		sxth r7, r7
300001F0  19C0     		add r0, r0, r7

#72					ST		YPOSOUT	{LNXT:18|21|-1}
(-) INT
300001F2  81F0     		strh r0, [r6, #14]

#73		
#74		$label4:
#75				(* END_IF *)
#76		
#77		
#78				(* IF curSeq = 22 *)
#79				LD		curSeq	{LNXT:21|-1|-1}
(*) UNDEF
300001F4  F8DF 774C		ldr r7, [pc, #+1868] ; 0x200002B6
300001F8  F9B7 0000		ldrsh r0, [r7]

#80				EQ		22	{LNXT:21|-1|-1}
(*) INT
300001FC  2816     		cmp r0, #22
300001FE  BF18 2000		nemov r0, #0
30000202  BF08 2001		eqmov r0, #1

#81				JMPCN	$label5	{LNXT:21|22|26}
(-) BOOL
30000206  2800     		cmp r0, #0
30000208  D00F     		beq #30 ; 0x3000022A


#82		
#83				(* THEN *)
#84		
#85					(* XPOSOUT := XPOS0 + 2505; *)
#86					LD		XPOS0	{LNXT:22|23|-1}
(*) UNDEF
3000020C  F8DF 7700		ldr r7, [pc, #+1792] ; 0x2
30000210  5FF0     		ldrsh r0, [r6, +r7]

#87					ADD		2505	{LNXT:22|23|-1}
(*) INT
30000212  F8DF 7728		ldr r7, [pc, #+1832] ; 0x9C9
30000216  463F     		mov r7, r7
30000218  19C0     		add r0, r0, r7

#88					ST		XPOSOUT	{LNXT:22|23|-1}
(-) INT
3000021A  81B0     		strh r0, [r6, #12]

#89		
#90					(* YPOSOUT := YPOS0 + 1520; *)
#91					LD		YPOS0	{LNXT:23|26|-1}
(*) UNDEF
3000021C  F9B6 0000		ldrsh r0, [r6]

#92					ADD		1520	{LNXT:23|26|-1}
(*) INT
30000220  F44F 67BE		mov r7, #1520 ; 1520
30000224  B23F     		sxth r7, r7
30000226  19C0     		add r0, r0, r7

#93					ST		YPOSOUT	{LNXT:23|26|-1}
(-) INT
30000228  81F0     		strh r0, [r6, #14]

#94		
#95		$label5:
#96				(* END_IF *)
#97		
#98		
#99				(* IF curSeq = 23 *)
#100				LD		curSeq	{LNXT:26|-1|-1}
(*) UNDEF
3000022A  F8DF 7718		ldr r7, [pc, #+1816] ; 0x200002B6
3000022E  F9B7 0000		ldrsh r0, [r7]

#101				EQ		23	{LNXT:26|-1|-1}
(*) INT
30000232  2817     		cmp r0, #23
30000234  BF18 2000		nemov r0, #0
30000238  BF08 2001		eqmov r0, #1

#102				JMPCN	$label6	{LNXT:26|27|31}
(-) BOOL
3000023C  2800     		cmp r0, #0
3000023E  D00F     		beq #30 ; 0x30000260


#103		
#104				(* THEN *)
#105		
#106					(* XPOSOUT := XPOS0 + 450; *)
#107					LD		XPOS0	{LNXT:27|28|-1}
(*) UNDEF
30000242  F8DF 76CC		ldr r7, [pc, #+1740] ; 0x2
30000246  5FF0     		ldrsh r0, [r6, +r7]

#108					ADD		450	{LNXT:27|28|-1}
(*) INT
30000248  F44F 77E1		mov r7, #450 ; 450
3000024C  B23F     		sxth r7, r7
3000024E  19C0     		add r0, r0, r7

#109					ST		XPOSOUT	{LNXT:27|28|-1}
(-) INT
30000250  81B0     		strh r0, [r6, #12]

#110		
#111					(* YPOSOUT := YPOS0 + 1520; *)
#112					LD		YPOS0	{LNXT:28|31|-1}
(*) UNDEF
30000252  F9B6 0000		ldrsh r0, [r6]

#113					ADD		1520	{LNXT:28|31|-1}
(*) INT
30000256  F44F 67BE		mov r7, #1520 ; 1520
3000025A  B23F     		sxth r7, r7
3000025C  19C0     		add r0, r0, r7

#114					ST		YPOSOUT	{LNXT:28|31|-1}
(-) INT
3000025E  81F0     		strh r0, [r6, #14]

#115		
#116		$label6:
#117				(* END_IF *)
#118		
#119		
#120				(* IF curSeq = 24 *)
#121				LD		curSeq	{LNXT:31|-1|-1}
(*) UNDEF
30000260  F8DF 76E0		ldr r7, [pc, #+1760] ; 0x200002B6
30000264  F9B7 0000		ldrsh r0, [r7]

#122				EQ		24	{LNXT:31|-1|-1}
(*) INT
30000268  2818     		cmp r0, #24
3000026A  BF18 2000		nemov r0, #0
3000026E  BF08 2001		eqmov r0, #1

#123				JMPCN	$label7	{LNXT:31|32|37}
(-) BOOL
30000272  2800     		cmp r0, #0
30000274  D00F     		beq #30 ; 0x30000296


#124		
#125				(* THEN *)
#126		
#127					(* XPOSOUT := XPOS0 + 450; *)
#128					LD		XPOS0	{LNXT:32|33|-1}
(*) UNDEF
30000278  F8DF 7694		ldr r7, [pc, #+1684] ; 0x2
3000027C  5FF0     		ldrsh r0, [r6, +r7]

#129					ADD		450	{LNXT:32|33|-1}
(*) INT
3000027E  F44F 77E1		mov r7, #450 ; 450
30000282  B23F     		sxth r7, r7
30000284  19C0     		add r0, r0, r7

#130					ST		XPOSOUT	{LNXT:32|33|-1}
(-) INT
30000286  81B0     		strh r0, [r6, #12]

#131		
#132					(* YPOSOUT := YPOS0 + 550; *)
#133					LD		YPOS0	{LNXT:33|37|-1}
(*) UNDEF
30000288  F9B6 0000		ldrsh r0, [r6]

#134					ADD		550	{LNXT:33|37|-1}
(*) INT
3000028C  F8DF 7698		ldr r7, [pc, #+1688] ; 0x226
30000290  463F     		mov r7, r7
30000292  19C0     		add r0, r0, r7

#135					ST		YPOSOUT	{LNXT:33|37|-1}
(-) INT
30000294  81F0     		strh r0, [r6, #14]

#136		
#137		$label7:
#138				(* END_IF *)
#139		
#140		
#141				(* IF XPOSOUT = XPOSACT) AND (YPOSOUT = YPOSACT *)
#142				LD		YPOSOUT	{LNXT:37|-1|-1}
(*) UNDEF
30000296  F8DF 768C		ldr r7, [pc, #+1676] ; 0xE
3000029A  5FF0     		ldrsh r0, [r6, +r7]

#143				EQ		YPOSACT	{LNXT:37|-1|-1}
(*) INT
3000029C  F8DF 7678		ldr r7, [pc, #+1656] ; 0x6
300002A0  5FF7     		ldrsh r7, [r6, +r7]
300002A2  42B8     		cmp r0, r7
300002A4  BF18 2000		nemov r0, #0
300002A8  BF08 2001		eqmov r0, #1

#144				AND(		XPOSOUT	{LNXT:37|-1|-1}
(*) BOOL
300002AC  B082     		sub sp, sp, #8
300002AE  F8CD 0000		str r0, [sp]
300002B2  F8DF 766C		ldr r7, [pc, #+1644] ; 0xC
300002B6  5FF0     		ldrsh r0, [r6, +r7]

#145				EQ		XPOSACT	{LNXT:37|-1|-1}
(*) INT
300002B8  F8DF 7658		ldr r7, [pc, #+1624] ; 0x4
300002BC  5FF7     		ldrsh r7, [r6, +r7]
300002BE  42B8     		cmp r0, r7
300002C0  BF18 2000		nemov r0, #0
300002C4  BF08 2001		eqmov r0, #1

#146				)	{LNXT:37|-1|-1}
(*) BOOL
300002C8  4607     		mov r7, r0
300002CA  F8DD 0000		ldr r0, [sp]
300002CE  B002     		add sp, sp, #8
300002D0  4038     		and r0, r0, r7

#147				JMPCN	$label8	{LNXT:37|38|44}
(-) BOOL
300002D2  2800     		cmp r0, #0
300002D4  D008     		beq #16 ; 0x300002E8


#148		
#149				(* THEN *)
#150		
#151					(* curSeq := curSeq + 1; *)
#152					LD		curSeq	{LNXT:38|44|-1}
(*) UNDEF
300002D8  F8DF 7668		ldr r7, [pc, #+1640] ; 0x200002B6
300002DC  F9B7 0000		ldrsh r0, [r7]

#153					ADD		1	{LNXT:38|44|-1}
(-) INT
300002E0  1C40     		add r0, r0, #1

#154					ST		curSeq	{LNXT:38|44|-1}
(*) INT
300002E2  F8DF 7660		ldr r7, [pc, #+1632] ; 0x200002B6
300002E6  8038     		strh r0, [r7]

#155		
#156		$label8:
#157				(* END_IF *)
#158		
#159		
#160				(* IF curSeq > 24 *)
#161				LD		curSeq	{LNXT:44|-1|-1}
(*) UNDEF
300002E8  F8DF 7658		ldr r7, [pc, #+1624] ; 0x200002B6
300002EC  F9B7 0000		ldrsh r0, [r7]

#162				GT		24	{LNXT:44|-1|-1}
(*) INT
300002F0  2818     		cmp r0, #24
300002F2  BFD8 2000		lemov r0, #0
300002F6  BFC8 2001		gtmov r0, #1

#163				JMPCN	$label9	{LNXT:44|45|54}
(-) BOOL
300002FA  2800     		cmp r0, #0
300002FC  D00D     		beq #26 ; 0x3000031A


#164		
#165				(* THEN *)
#166		
#167					(* curSeq := 100; *)
#168					MOVE		100,curSeq	{LNXT:45|46|-1}
(*) BOOL
30000300  2064     		mov r0, #100 ; 100
30000302  F8DF 7640		ldr r7, [pc, #+1600] ; 0x200002B6
30000306  8038     		strh r0, [r7]

#169		
#170					(* LASERPWM := 0.0; *)
#171					MOVE		0.0,LASERPWM	{LNXT:46|54|-1}
(*) INT
30000308  F8DF 0600		ldr r0, [pc, #+1536] ; 0x0 = 0.000000
3000030C  EE00 0A10		fmsr s0, r0
30000310  F8DF 7608		ldr r7, [pc, #+1544] ; 0x8
30000314  19BF     		add r7, r7, r6
30000316  ED87 0A00		fsts s0, [r7]

#172		
#173		$label9:
#174				(* END_IF *)
#175		
#176		$label0:
#177			(* END_IF *)
#178		
#179		
#180			(* IF cutDigit = 1 *)
#181			LD		cutDigit	{LNXT:54|-1|-1}
(*) UNDEF
3000031A  F8DF 7624		ldr r7, [pc, #+1572] ; 0x200002B4
3000031E  F9B7 0000		ldrsh r0, [r7]

#182			EQ		1	{LNXT:54|-1|-1}
(*) INT
30000322  2801     		cmp r0, #1
30000324  BF18 2000		nemov r0, #0
30000328  BF08 2001		eqmov r0, #1

#183			JMPCN	$label10	{LNXT:54|56|111}
(-) BOOL
3000032C  2800     		cmp r0, #0
3000032E  F000 8115		beq #554 ; 0x3000055C


#184		
#185			(* THEN *)
#186		
#187		
#188				(* IF curSeq = 20 *)
#189				LD		curSeq	{LNXT:56|-1|-1}
(*) UNDEF
30000332  F8DF 7610		ldr r7, [pc, #+1552] ; 0x200002B6
30000336  F9B7 0000		ldrsh r0, [r7]

#190				EQ		20	{LNXT:56|-1|-1}
(*) INT
3000033A  2814     		cmp r0, #20
3000033C  BF18 2000		nemov r0, #0
30000340  BF08 2001		eqmov r0, #1

#191				JMPCN	$label11	{LNXT:56|57|63}
(-) BOOL
30000344  2800     		cmp r0, #0
30000346  D00F     		beq #30 ; 0x30000368


#192		
#193				(* THEN *)
#194		
#195					(* XPOSOUT := XPOS0 + 768; *)
#196					LD		XPOS0	{LNXT:57|58|-1}
(*) UNDEF
3000034A  F8DF 75C4		ldr r7, [pc, #+1476] ; 0x2
3000034E  5FF0     		ldrsh r0, [r6, +r7]

#197					ADD		768	{LNXT:57|58|-1}
(*) INT
30000350  F44F 7740		mov r7, #768 ; 768
30000354  B23F     		sxth r7, r7
30000356  19C0     		add r0, r0, r7

#198					ST		XPOSOUT	{LNXT:57|58|-1}
(-) INT
30000358  81B0     		strh r0, [r6, #12]

#199		
#200					(* YPOSOUT := YPOS0 + 1303; *)
#201					LD		YPOS0	{LNXT:58|63|-1}
(*) UNDEF
3000035A  F9B6 0000		ldrsh r0, [r6]

#202					ADD		1303	{LNXT:58|63|-1}
(*) INT
3000035E  F8DF 75D0		ldr r7, [pc, #+1488] ; 0x517
30000362  463F     		mov r7, r7
30000364  19C0     		add r0, r0, r7

#203					ST		YPOSOUT	{LNXT:58|63|-1}
(-) INT
30000366  81F0     		strh r0, [r6, #14]

#204		
#205		$label11:
#206				(* END_IF *)
#207		
#208		
#209				(* IF curSeq > 20) AND (curSeq < 100 *)
#210				LD		curSeq	{LNXT:63|-1|-1}
(*) UNDEF
30000368  F8DF 75D8		ldr r7, [pc, #+1496] ; 0x200002B6
3000036C  F9B7 0000		ldrsh r0, [r7]

#211				LT		100	{LNXT:63|-1|-1}
(*) INT
30000370  2864     		cmp r0, #100
30000372  BFA8 2000		gemov r0, #0
30000376  BFB8 2001		ltmov r0, #1

#212				AND(		curSeq	{LNXT:63|-1|-1}
(*) BOOL
3000037A  B082     		sub sp, sp, #8
3000037C  F8CD 0000		str r0, [sp]
30000380  F8DF 75C0		ldr r7, [pc, #+1472] ; 0x200002B6
30000384  F9B7 0000		ldrsh r0, [r7]

#213				GT		20	{LNXT:63|-1|-1}
(*) INT
30000388  2814     		cmp r0, #20
3000038A  BFD8 2000		lemov r0, #0
3000038E  BFC8 2001		gtmov r0, #1

#214				)	{LNXT:63|-1|-1}
(*) BOOL
30000392  4607     		mov r7, r0
30000394  F8DD 0000		ldr r0, [sp]
30000398  B002     		add sp, sp, #8
3000039A  4038     		and r0, r0, r7

#215				JMPCN	$label12	{LNXT:63|64|66}
(-) BOOL
3000039C  2800     		cmp r0, #0
3000039E  D00B     		beq #22 ; 0x300003B8


#216		
#217				(* THEN *)
#218		
#219					(* LASERPWM := 0.8; *)
#220					MOVE		0.8,LASERPWM	{LNXT:64|69|-1}
(*) BOOL
300003A2  F8DF 05A4		ldr r0, [pc, #+1444] ; 0x3F4CCCCD = 0.800000
300003A6  EE00 0A10		fmsr s0, r0
300003AA  F8DF 7570		ldr r7, [pc, #+1392] ; 0x8
300003AE  19BF     		add r7, r7, r6
300003B0  ED87 0A00		fsts s0, [r7]

#221					JMP		$label13	{LNXT:63|64|66}
(-) REAL
300003B4  E009     		b #18 ; 0x300003CA


#222		$label12:
#223		
#224				(* ELSE *)
#225		
#226					(* LASERPWM := 0.0; *)
#227					MOVE		0.0,LASERPWM	{LNXT:66|69|-1}
(*) REAL
300003B8  F8DF 0550		ldr r0, [pc, #+1360] ; 0x0 = 0.000000
300003BC  EE00 0A10		fmsr s0, r0
300003C0  F8DF 7558		ldr r7, [pc, #+1368] ; 0x8
300003C4  19BF     		add r7, r7, r6
300003C6  ED87 0A00		fsts s0, [r7]

#228		
#229		$label13:
#230				(* END_IF *)
#231		
#232		
#233				(* IF curSeq = 21 *)
#234				LD		curSeq	{LNXT:69|-1|-1}
(*) UNDEF
300003CA  F8DF 7578		ldr r7, [pc, #+1400] ; 0x200002B6
300003CE  F9B7 0000		ldrsh r0, [r7]

#235				EQ		21	{LNXT:69|-1|-1}
(*) INT
300003D2  2815     		cmp r0, #21
300003D4  BF18 2000		nemov r0, #0
300003D8  BF08 2001		eqmov r0, #1

#236				JMPCN	$label14	{LNXT:69|70|74}
(-) BOOL
300003DC  2800     		cmp r0, #0
300003DE  D00F     		beq #30 ; 0x30000400


#237		
#238				(* THEN *)
#239		
#240					(* XPOSOUT := XPOS0 + 450; *)
#241					LD		XPOS0	{LNXT:70|71|-1}
(*) UNDEF
300003E2  F8DF 752C		ldr r7, [pc, #+1324] ; 0x2
300003E6  5FF0     		ldrsh r0, [r6, +r7]

#242					ADD		450	{LNXT:70|71|-1}
(*) INT
300003E8  F44F 77E1		mov r7, #450 ; 450
300003EC  B23F     		sxth r7, r7
300003EE  19C0     		add r0, r0, r7

#243					ST		XPOSOUT	{LNXT:70|71|-1}
(-) INT
300003F0  81B0     		strh r0, [r6, #12]

#244		
#245					(* YPOSOUT := YPOS0 + 985; *)
#246					LD		YPOS0	{LNXT:71|74|-1}
(*) UNDEF
300003F2  F9B6 0000		ldrsh r0, [r6]

#247					ADD		985	{LNXT:71|74|-1}
(*) INT
300003F6  F8DF 7534		ldr r7, [pc, #+1332] ; 0x3D9
300003FA  463F     		mov r7, r7
300003FC  19C0     		add r0, r0, r7

#248					ST		YPOSOUT	{LNXT:71|74|-1}
(-) INT
300003FE  81F0     		strh r0, [r6, #14]

#249		
#250		$label14:
#251				(* END_IF *)
#252		
#253		
#254				(* IF curSeq = 22 *)
#255				LD		curSeq	{LNXT:74|-1|-1}
(*) UNDEF
30000400  F8DF 7540		ldr r7, [pc, #+1344] ; 0x200002B6
30000404  F9B7 0000		ldrsh r0, [r7]

#256				EQ		22	{LNXT:74|-1|-1}
(*) INT
30000408  2816     		cmp r0, #22
3000040A  BF18 2000		nemov r0, #0
3000040E  BF08 2001		eqmov r0, #1

#257				JMPCN	$label15	{LNXT:74|75|79}
(-) BOOL
30000412  2800     		cmp r0, #0
30000414  D00F     		beq #30 ; 0x30000436


#258		
#259				(* THEN *)
#260		
#261					(* XPOSOUT := XPOS0 + 2405; *)
#262					LD		XPOS0	{LNXT:75|76|-1}
(*) UNDEF
30000418  F8DF 74F4		ldr r7, [pc, #+1268] ; 0x2
3000041C  5FF0     		ldrsh r0, [r6, +r7]

#263					ADD		2405	{LNXT:75|76|-1}
(*) INT
3000041E  F8DF 7518		ldr r7, [pc, #+1304] ; 0x965
30000422  463F     		mov r7, r7
30000424  19C0     		add r0, r0, r7

#264					ST		XPOSOUT	{LNXT:75|76|-1}
(-) INT
30000426  81B0     		strh r0, [r6, #12]

#265		
#266					(* YPOSOUT := YPOS0 + 985; *)
#267					LD		YPOS0	{LNXT:76|79|-1}
(*) UNDEF
30000428  F9B6 0000		ldrsh r0, [r6]

#268					ADD		985	{LNXT:76|79|-1}
(*) INT
3000042C  F8DF 74FC		ldr r7, [pc, #+1276] ; 0x3D9
30000430  463F     		mov r7, r7
30000432  19C0     		add r0, r0, r7

#269					ST		YPOSOUT	{LNXT:76|79|-1}
(-) INT
30000434  81F0     		strh r0, [r6, #14]

#270		
#271		$label15:
#272				(* END_IF *)
#273		
#274		
#275				(* IF curSeq = 23 *)
#276				LD		curSeq	{LNXT:79|-1|-1}
(*) UNDEF
30000436  F8DF 750C		ldr r7, [pc, #+1292] ; 0x200002B6
3000043A  F9B7 0000		ldrsh r0, [r7]

#277				EQ		23	{LNXT:79|-1|-1}
(*) INT
3000043E  2817     		cmp r0, #23
30000440  BF18 2000		nemov r0, #0
30000444  BF08 2001		eqmov r0, #1

#278				JMPCN	$label16	{LNXT:79|80|84}
(-) BOOL
30000448  2800     		cmp r0, #0
3000044A  D00F     		beq #30 ; 0x3000046C


#279		
#280				(* THEN *)
#281		
#282					(* XPOSOUT := XPOS0 + 2405; *)
#283					LD		XPOS0	{LNXT:80|81|-1}
(*) UNDEF
3000044E  F8DF 74C0		ldr r7, [pc, #+1216] ; 0x2
30000452  5FF0     		ldrsh r0, [r6, +r7]

#284					ADD		2405	{LNXT:80|81|-1}
(*) INT
30000454  F8DF 74E0		ldr r7, [pc, #+1248] ; 0x965
30000458  463F     		mov r7, r7
3000045A  19C0     		add r0, r0, r7

#285					ST		XPOSOUT	{LNXT:80|81|-1}
(-) INT
3000045C  81B0     		strh r0, [r6, #12]

#286		
#287					(* YPOSOUT := YPOS0 + 1520; *)
#288					LD		YPOS0	{LNXT:81|84|-1}
(*) UNDEF
3000045E  F9B6 0000		ldrsh r0, [r6]

#289					ADD		1520	{LNXT:81|84|-1}
(*) INT
30000462  F44F 67BE		mov r7, #1520 ; 1520
30000466  B23F     		sxth r7, r7
30000468  19C0     		add r0, r0, r7

#290					ST		YPOSOUT	{LNXT:81|84|-1}
(-) INT
3000046A  81F0     		strh r0, [r6, #14]

#291		
#292		$label16:
#293				(* END_IF *)
#294		
#295		
#296				(* IF curSeq = 24 *)
#297				LD		curSeq	{LNXT:84|-1|-1}
(*) UNDEF
3000046C  F8DF 74D4		ldr r7, [pc, #+1236] ; 0x200002B6
30000470  F9B7 0000		ldrsh r0, [r7]

#298				EQ		24	{LNXT:84|-1|-1}
(*) INT
30000474  2818     		cmp r0, #24
30000476  BF18 2000		nemov r0, #0
3000047A  BF08 2001		eqmov r0, #1

#299				JMPCN	$label17	{LNXT:84|85|89}
(-) BOOL
3000047E  2800     		cmp r0, #0
30000480  D00F     		beq #30 ; 0x300004A2


#300		
#301				(* THEN *)
#302		
#303					(* XPOSOUT := XPOS0 + 2505; *)
#304					LD		XPOS0	{LNXT:85|86|-1}
(*) UNDEF
30000484  F8DF 7488		ldr r7, [pc, #+1160] ; 0x2
30000488  5FF0     		ldrsh r0, [r6, +r7]

#305					ADD		2505	{LNXT:85|86|-1}
(*) INT
3000048A  F8DF 74B0		ldr r7, [pc, #+1200] ; 0x9C9
3000048E  463F     		mov r7, r7
30000490  19C0     		add r0, r0, r7

#306					ST		XPOSOUT	{LNXT:85|86|-1}
(-) INT
30000492  81B0     		strh r0, [r6, #12]

#307		
#308					(* YPOSOUT := YPOS0 + 1520; *)
#309					LD		YPOS0	{LNXT:86|89|-1}
(*) UNDEF
30000494  F9B6 0000		ldrsh r0, [r6]

#310					ADD		1520	{LNXT:86|89|-1}
(*) INT
30000498  F44F 67BE		mov r7, #1520 ; 1520
3000049C  B23F     		sxth r7, r7
3000049E  19C0     		add r0, r0, r7

#311					ST		YPOSOUT	{LNXT:86|89|-1}
(-) INT
300004A0  81F0     		strh r0, [r6, #14]

#312		
#313		$label17:
#314				(* END_IF *)
#315		
#316		
#317				(* IF curSeq = 25 *)
#318				LD		curSeq	{LNXT:89|-1|-1}
(*) UNDEF
300004A2  F8DF 74A0		ldr r7, [pc, #+1184] ; 0x200002B6
300004A6  F9B7 0000		ldrsh r0, [r7]

#319				EQ		25	{LNXT:89|-1|-1}
(*) INT
300004AA  2819     		cmp r0, #25
300004AC  BF18 2000		nemov r0, #0
300004B0  BF08 2001		eqmov r0, #1

#320				JMPCN	$label18	{LNXT:89|90|95}
(-) BOOL
300004B4  2800     		cmp r0, #0
300004B6  D00F     		beq #30 ; 0x300004D8


#321		
#322				(* THEN *)
#323		
#324					(* XPOSOUT := XPOS0 + 2505; *)
#325					LD		XPOS0	{LNXT:90|91|-1}
(*) UNDEF
300004BA  F8DF 7454		ldr r7, [pc, #+1108] ; 0x2
300004BE  5FF0     		ldrsh r0, [r6, +r7]

#326					ADD		2505	{LNXT:90|91|-1}
(*) INT
300004C0  F8DF 7478		ldr r7, [pc, #+1144] ; 0x9C9
300004C4  463F     		mov r7, r7
300004C6  19C0     		add r0, r0, r7

#327					ST		XPOSOUT	{LNXT:90|91|-1}
(-) INT
300004C8  81B0     		strh r0, [r6, #12]

#328		
#329					(* YPOSOUT := YPOS0 + 450; *)
#330					LD		YPOS0	{LNXT:91|95|-1}
(*) UNDEF
300004CA  F9B6 0000		ldrsh r0, [r6]

#331					ADD		450	{LNXT:91|95|-1}
(*) INT
300004CE  F44F 77E1		mov r7, #450 ; 450
300004D2  B23F     		sxth r7, r7
300004D4  19C0     		add r0, r0, r7

#332					ST		YPOSOUT	{LNXT:91|95|-1}
(-) INT
300004D6  81F0     		strh r0, [r6, #14]

#333		
#334		$label18:
#335				(* END_IF *)
#336		
#337		
#338				(* IF XPOSOUT = XPOSACT) AND (YPOSOUT = YPOSACT *)
#339				LD		YPOSOUT	{LNXT:95|-1|-1}
(*) UNDEF
300004D8  F8DF 7448		ldr r7, [pc, #+1096] ; 0xE
300004DC  5FF0     		ldrsh r0, [r6, +r7]

#340				EQ		YPOSACT	{LNXT:95|-1|-1}
(*) INT
300004DE  F8DF 7438		ldr r7, [pc, #+1080] ; 0x6
300004E2  5FF7     		ldrsh r7, [r6, +r7]
300004E4  42B8     		cmp r0, r7
300004E6  BF18 2000		nemov r0, #0
300004EA  BF08 2001		eqmov r0, #1

#341				AND(		XPOSOUT	{LNXT:95|-1|-1}
(*) BOOL
300004EE  B082     		sub sp, sp, #8
300004F0  F8CD 0000		str r0, [sp]
300004F4  F8DF 7428		ldr r7, [pc, #+1064] ; 0xC
300004F8  5FF0     		ldrsh r0, [r6, +r7]

#342				EQ		XPOSACT	{LNXT:95|-1|-1}
(*) INT
300004FA  F8DF 7418		ldr r7, [pc, #+1048] ; 0x4
300004FE  5FF7     		ldrsh r7, [r6, +r7]
30000500  42B8     		cmp r0, r7
30000502  BF18 2000		nemov r0, #0
30000506  BF08 2001		eqmov r0, #1

#343				)	{LNXT:95|-1|-1}
(*) BOOL
3000050A  4607     		mov r7, r0
3000050C  F8DD 0000		ldr r0, [sp]
30000510  B002     		add sp, sp, #8
30000512  4038     		and r0, r0, r7

#344				JMPCN	$label19	{LNXT:95|96|102}
(-) BOOL
30000514  2800     		cmp r0, #0
30000516  D008     		beq #16 ; 0x3000052A


#345		
#346				(* THEN *)
#347		
#348					(* curSeq := curSeq + 1; *)
#349					LD		curSeq	{LNXT:96|102|-1}
(*) UNDEF
3000051A  F8DF 7428		ldr r7, [pc, #+1064] ; 0x200002B6
3000051E  F9B7 0000		ldrsh r0, [r7]

#350					ADD		1	{LNXT:96|102|-1}
(-) INT
30000522  1C40     		add r0, r0, #1

#351					ST		curSeq	{LNXT:96|102|-1}
(*) INT
30000524  F8DF 741C		ldr r7, [pc, #+1052] ; 0x200002B6
30000528  8038     		strh r0, [r7]

#352		
#353		$label19:
#354				(* END_IF *)
#355		
#356		
#357				(* IF curSeq > 25 *)
#358				LD		curSeq	{LNXT:102|-1|-1}
(*) UNDEF
3000052A  F8DF 7418		ldr r7, [pc, #+1048] ; 0x200002B6
3000052E  F9B7 0000		ldrsh r0, [r7]

#359				GT		25	{LNXT:102|-1|-1}
(*) INT
30000532  2819     		cmp r0, #25
30000534  BFD8 2000		lemov r0, #0
30000538  BFC8 2001		gtmov r0, #1

#360				JMPCN	$label20	{LNXT:102|103|111}
(-) BOOL
3000053C  2800     		cmp r0, #0
3000053E  D00D     		beq #26 ; 0x3000055C


#361		
#362				(* THEN *)
#363		
#364					(* curSeq := 100; *)
#365					MOVE		100,curSeq	{LNXT:103|104|-1}
(*) BOOL
30000542  2064     		mov r0, #100 ; 100
30000544  F8DF 73FC		ldr r7, [pc, #+1020] ; 0x200002B6
30000548  8038     		strh r0, [r7]

#366		
#367					(* LASERPWM := 0.0; *)
#368					MOVE		0.0,LASERPWM	{LNXT:104|111|-1}
(*) INT
3000054A  F8DF 03C0		ldr r0, [pc, #+960] ; 0x0 = 0.000000
3000054E  EE00 0A10		fmsr s0, r0
30000552  F8DF 73C8		ldr r7, [pc, #+968] ; 0x8
30000556  19BF     		add r7, r7, r6
30000558  ED87 0A00		fsts s0, [r7]

#369		
#370		$label20:
#371				(* END_IF *)
#372		
#373		$label10:
#374			(* END_IF *)
#375		
#376		
#377			(* IF cutDigit = 2 *)
#378			LD		cutDigit	{LNXT:111|-1|-1}
(*) UNDEF
3000055C  F8DF 73E0		ldr r7, [pc, #+992] ; 0x200002B4
30000560  F9B7 0000		ldrsh r0, [r7]

#379			EQ		2	{LNXT:111|-1|-1}
(*) INT
30000564  2802     		cmp r0, #2
30000566  BF18 2000		nemov r0, #0
3000056A  BF08 2001		eqmov r0, #1

#380			JMPCN	$label21	{LNXT:111|113|173}
(-) BOOL
3000056E  2800     		cmp r0, #0
30000570  F000 8130		beq #608 ; 0x300007D4


#381		
#382			(* THEN *)
#383		
#384		
#385				(* IF curSeq = 20 *)
#386				LD		curSeq	{LNXT:113|-1|-1}
(*) UNDEF
30000574  F8DF 73CC		ldr r7, [pc, #+972] ; 0x200002B6
30000578  F9B7 0000		ldrsh r0, [r7]

#387				EQ		20	{LNXT:113|-1|-1}
(*) INT
3000057C  2814     		cmp r0, #20
3000057E  BF18 2000		nemov r0, #0
30000582  BF08 2001		eqmov r0, #1

#388				JMPCN	$label22	{LNXT:113|114|120}
(-) BOOL
30000586  2800     		cmp r0, #0
30000588  D00F     		beq #30 ; 0x300005AA


#389		
#390				(* THEN *)
#391		
#392					(* XPOSOUT := XPOS0 + 900; *)
#393					LD		XPOS0	{LNXT:114|115|-1}
(*) UNDEF
3000058C  F8DF 7380		ldr r7, [pc, #+896] ; 0x2
30000590  5FF0     		ldrsh r0, [r6, +r7]

#394					ADD		900	{LNXT:114|115|-1}
(*) INT
30000592  F44F 7761		mov r7, #900 ; 900
30000596  B23F     		sxth r7, r7
30000598  19C0     		add r0, r0, r7

#395					ST		XPOSOUT	{LNXT:114|115|-1}
(-) INT
3000059A  81B0     		strh r0, [r6, #12]

#396		
#397					(* YPOSOUT := YPOS0 + 1520; *)
#398					LD		YPOS0	{LNXT:115|120|-1}
(*) UNDEF
3000059C  F9B6 0000		ldrsh r0, [r6]

#399					ADD		1520	{LNXT:115|120|-1}
(*) INT
300005A0  F44F 67BE		mov r7, #1520 ; 1520
300005A4  B23F     		sxth r7, r7
300005A6  19C0     		add r0, r0, r7

#400					ST		YPOSOUT	{LNXT:115|120|-1}
(-) INT
300005A8  81F0     		strh r0, [r6, #14]

#401		
#402		$label22:
#403				(* END_IF *)
#404		
#405		
#406				(* IF curSeq > 20) AND (curSeq < 100 *)
#407				LD		curSeq	{LNXT:120|-1|-1}
(*) UNDEF
300005AA  F8DF 7398		ldr r7, [pc, #+920] ; 0x200002B6
300005AE  F9B7 0000		ldrsh r0, [r7]

#408				LT		100	{LNXT:120|-1|-1}
(*) INT
300005B2  2864     		cmp r0, #100
300005B4  BFA8 2000		gemov r0, #0
300005B8  BFB8 2001		ltmov r0, #1

#409				AND(		curSeq	{LNXT:120|-1|-1}
(*) BOOL
300005BC  B082     		sub sp, sp, #8
300005BE  F8CD 0000		str r0, [sp]
300005C2  F8DF 7380		ldr r7, [pc, #+896] ; 0x200002B6
300005C6  F9B7 0000		ldrsh r0, [r7]

#410				GT		20	{LNXT:120|-1|-1}
(*) INT
300005CA  2814     		cmp r0, #20
300005CC  BFD8 2000		lemov r0, #0
300005D0  BFC8 2001		gtmov r0, #1

#411				)	{LNXT:120|-1|-1}
(*) BOOL
300005D4  4607     		mov r7, r0
300005D6  F8DD 0000		ldr r0, [sp]
300005DA  B002     		add sp, sp, #8
300005DC  4038     		and r0, r0, r7

#412				JMPCN	$label23	{LNXT:120|121|123}
(-) BOOL
300005DE  2800     		cmp r0, #0
300005E0  D00B     		beq #22 ; 0x300005FA


#413		
#414				(* THEN *)
#415		
#416					(* LASERPWM := 0.8; *)
#417					MOVE		0.8,LASERPWM	{LNXT:121|126|-1}
(*) BOOL
300005E4  F8DF 0360		ldr r0, [pc, #+864] ; 0x3F4CCCCD = 0.800000
300005E8  EE00 0A10		fmsr s0, r0
300005EC  F8DF 732C		ldr r7, [pc, #+812] ; 0x8
300005F0  19BF     		add r7, r7, r6
300005F2  ED87 0A00		fsts s0, [r7]

#418					JMP		$label24	{LNXT:120|121|123}
(-) REAL
300005F6  E009     		b #18 ; 0x3000060C


#419		$label23:
#420		
#421				(* ELSE *)
#422		
#423					(* LASERPWM := 0.0; *)
#424					MOVE		0.0,LASERPWM	{LNXT:123|126|-1}
(*) REAL
300005FA  F8DF 0310		ldr r0, [pc, #+784] ; 0x0 = 0.000000
300005FE  EE00 0A10		fmsr s0, r0
30000602  F8DF 7318		ldr r7, [pc, #+792] ; 0x8
30000606  19BF     		add r7, r7, r6
30000608  ED87 0A00		fsts s0, [r7]

#425		
#426		$label24:
#427				(* END_IF *)
#428		
#429		
#430				(* IF curSeq = 21 *)
#431				LD		curSeq	{LNXT:126|-1|-1}
(*) UNDEF
3000060C  F8DF 7334		ldr r7, [pc, #+820] ; 0x200002B6
30000610  F9B7 0000		ldrsh r0, [r7]

#432				EQ		21	{LNXT:126|-1|-1}
(*) INT
30000614  2815     		cmp r0, #21
30000616  BF18 2000		nemov r0, #0
3000061A  BF08 2001		eqmov r0, #1

#433				JMPCN	$label25	{LNXT:126|127|131}
(-) BOOL
3000061E  2800     		cmp r0, #0
30000620  D00F     		beq #30 ; 0x30000642


#434		
#435				(* THEN *)
#436		
#437					(* XPOSOUT := XPOS0 + 450; *)
#438					LD		XPOS0	{LNXT:127|128|-1}
(*) UNDEF
30000624  F8DF 72E8		ldr r7, [pc, #+744] ; 0x2
30000628  5FF0     		ldrsh r0, [r6, +r7]

#439					ADD		450	{LNXT:127|128|-1}
(*) INT
3000062A  F44F 77E1		mov r7, #450 ; 450
3000062E  B23F     		sxth r7, r7
30000630  19C0     		add r0, r0, r7

#440					ST		XPOSOUT	{LNXT:127|128|-1}
(-) INT
30000632  81B0     		strh r0, [r6, #12]

#441		
#442					(* YPOSOUT := YPOS0 + 1520; *)
#443					LD		YPOS0	{LNXT:128|131|-1}
(*) UNDEF
30000634  F9B6 0000		ldrsh r0, [r6]

#444					ADD		1520	{LNXT:128|131|-1}
(*) INT
30000638  F44F 67BE		mov r7, #1520 ; 1520
3000063C  B23F     		sxth r7, r7
3000063E  19C0     		add r0, r0, r7

#445					ST		YPOSOUT	{LNXT:128|131|-1}
(-) INT
30000640  81F0     		strh r0, [r6, #14]

#446		
#447		$label25:
#448				(* END_IF *)
#449		
#450		
#451				(* IF curSeq = 22 *)
#452				LD		curSeq	{LNXT:131|-1|-1}
(*) UNDEF
30000642  F8DF 7300		ldr r7, [pc, #+768] ; 0x200002B6
30000646  F9B7 0000		ldrsh r0, [r7]

#453				EQ		22	{LNXT:131|-1|-1}
(*) INT
3000064A  2816     		cmp r0, #22
3000064C  BF18 2000		nemov r0, #0
30000650  BF08 2001		eqmov r0, #1

#454				JMPCN	$label26	{LNXT:131|132|136}
(-) BOOL
30000654  2800     		cmp r0, #0
30000656  D00F     		beq #30 ; 0x30000678


#455		
#456				(* THEN *)
#457		
#458					(* XPOSOUT := XPOS0 + 450; *)
#459					LD		XPOS0	{LNXT:132|133|-1}
(*) UNDEF
3000065A  F8DF 72B4		ldr r7, [pc, #+692] ; 0x2
3000065E  5FF0     		ldrsh r0, [r6, +r7]

#460					ADD		450	{LNXT:132|133|-1}
(*) INT
30000660  F44F 77E1		mov r7, #450 ; 450
30000664  B23F     		sxth r7, r7
30000666  19C0     		add r0, r0, r7

#461					ST		XPOSOUT	{LNXT:132|133|-1}
(-) INT
30000668  81B0     		strh r0, [r6, #12]

#462		
#463					(* YPOSOUT := YPOS0 + 450; *)
#464					LD		YPOS0	{LNXT:133|136|-1}
(*) UNDEF
3000066A  F9B6 0000		ldrsh r0, [r6]

#465					ADD		450	{LNXT:133|136|-1}
(*) INT
3000066E  F44F 77E1		mov r7, #450 ; 450
30000672  B23F     		sxth r7, r7
30000674  19C0     		add r0, r0, r7

#466					ST		YPOSOUT	{LNXT:133|136|-1}
(-) INT
30000676  81F0     		strh r0, [r6, #14]

#467		
#468		$label26:
#469				(* END_IF *)
#470		
#471		
#472				(* IF curSeq = 23 *)
#473				LD		curSeq	{LNXT:136|-1|-1}
(*) UNDEF
30000678  F8DF 72C8		ldr r7, [pc, #+712] ; 0x200002B6
3000067C  F9B7 0000		ldrsh r0, [r7]

#474				EQ		23	{LNXT:136|-1|-1}
(*) INT
30000680  2817     		cmp r0, #23
30000682  BF18 2000		nemov r0, #0
30000686  BF08 2001		eqmov r0, #1

#475				JMPCN	$label27	{LNXT:136|137|141}
(-) BOOL
3000068A  2800     		cmp r0, #0
3000068C  D00F     		beq #30 ; 0x300006AE


#476		
#477				(* THEN *)
#478		
#479					(* XPOSOUT := XPOS0 + 1480; *)
#480					LD		XPOS0	{LNXT:137|138|-1}
(*) UNDEF
30000690  F8DF 727C		ldr r7, [pc, #+636] ; 0x2
30000694  5FF0     		ldrsh r0, [r6, +r7]

#481					ADD		1480	{LNXT:137|138|-1}
(*) INT
30000696  F44F 67B9		mov r7, #1480 ; 1480
3000069A  B23F     		sxth r7, r7
3000069C  19C0     		add r0, r0, r7

#482					ST		XPOSOUT	{LNXT:137|138|-1}
(-) INT
3000069E  81B0     		strh r0, [r6, #12]

#483		
#484					(* YPOSOUT := YPOS0 + 450; *)
#485					LD		YPOS0	{LNXT:138|141|-1}
(*) UNDEF
300006A0  F9B6 0000		ldrsh r0, [r6]

#486					ADD		450	{LNXT:138|141|-1}
(*) INT
300006A4  F44F 77E1		mov r7, #450 ; 450
300006A8  B23F     		sxth r7, r7
300006AA  19C0     		add r0, r0, r7

#487					ST		YPOSOUT	{LNXT:138|141|-1}
(-) INT
300006AC  81F0     		strh r0, [r6, #14]

#488		
#489		$label27:
#490				(* END_IF *)
#491		
#492		
#493				(* IF curSeq = 24 *)
#494				LD		curSeq	{LNXT:141|-1|-1}
(*) UNDEF
300006AE  F8DF 7294		ldr r7, [pc, #+660] ; 0x200002B6
300006B2  F9B7 0000		ldrsh r0, [r7]

#495				EQ		24	{LNXT:141|-1|-1}
(*) INT
300006B6  2818     		cmp r0, #24
300006B8  BF18 2000		nemov r0, #0
300006BC  BF08 2001		eqmov r0, #1

#496				JMPCN	$label28	{LNXT:141|142|146}
(-) BOOL
300006C0  2800     		cmp r0, #0
300006C2  D00F     		beq #30 ; 0x300006E4


#497		
#498				(* THEN *)
#499		
#500					(* XPOSOUT := XPOS0 + 1480; *)
#501					LD		XPOS0	{LNXT:142|143|-1}
(*) UNDEF
300006C6  F8DF 7248		ldr r7, [pc, #+584] ; 0x2
300006CA  5FF0     		ldrsh r0, [r6, +r7]

#502					ADD		1480	{LNXT:142|143|-1}
(*) INT
300006CC  F44F 67B9		mov r7, #1480 ; 1480
300006D0  B23F     		sxth r7, r7
300006D2  19C0     		add r0, r0, r7

#503					ST		XPOSOUT	{LNXT:142|143|-1}
(-) INT
300006D4  81B0     		strh r0, [r6, #12]

#504		
#505					(* YPOSOUT := YPOS0 + 1520; *)
#506					LD		YPOS0	{LNXT:143|146|-1}
(*) UNDEF
300006D6  F9B6 0000		ldrsh r0, [r6]

#507					ADD		1520	{LNXT:143|146|-1}
(*) INT
300006DA  F44F 67BE		mov r7, #1520 ; 1520
300006DE  B23F     		sxth r7, r7
300006E0  19C0     		add r0, r0, r7

#508					ST		YPOSOUT	{LNXT:143|146|-1}
(-) INT
300006E2  81F0     		strh r0, [r6, #14]

#509		
#510		$label28:
#511				(* END_IF *)
#512		
#513		
#514				(* IF curSeq = 25 *)
#515				LD		curSeq	{LNXT:146|-1|-1}
(*) UNDEF
300006E4  F8DF 725C		ldr r7, [pc, #+604] ; 0x200002B6
300006E8  F9B7 0000		ldrsh r0, [r7]

#516				EQ		25	{LNXT:146|-1|-1}
(*) INT
300006EC  2819     		cmp r0, #25
300006EE  BF18 2000		nemov r0, #0
300006F2  BF08 2001		eqmov r0, #1

#517				JMPCN	$label29	{LNXT:146|147|151}
(-) BOOL
300006F6  2800     		cmp r0, #0
300006F8  D00F     		beq #30 ; 0x3000071A


#518		
#519				(* THEN *)
#520		
#521					(* XPOSOUT := XPOS0 + 2505; *)
#522					LD		XPOS0	{LNXT:147|148|-1}
(*) UNDEF
300006FC  F8DF 7210		ldr r7, [pc, #+528] ; 0x2
30000700  5FF0     		ldrsh r0, [r6, +r7]

#523					ADD		2505	{LNXT:147|148|-1}
(*) INT
30000702  F8DF 7238		ldr r7, [pc, #+568] ; 0x9C9
30000706  463F     		mov r7, r7
30000708  19C0     		add r0, r0, r7

#524					ST		XPOSOUT	{LNXT:147|148|-1}
(-) INT
3000070A  81B0     		strh r0, [r6, #12]

#525		
#526					(* YPOSOUT := YPOS0 + 1520; *)
#527					LD		YPOS0	{LNXT:148|151|-1}
(*) UNDEF
3000070C  F9B6 0000		ldrsh r0, [r6]

#528					ADD		1520	{LNXT:148|151|-1}
(*) INT
30000710  F44F 67BE		mov r7, #1520 ; 1520
30000714  B23F     		sxth r7, r7
30000716  19C0     		add r0, r0, r7

#529					ST		YPOSOUT	{LNXT:148|151|-1}
(-) INT
30000718  81F0     		strh r0, [r6, #14]

#530		
#531		$label29:
#532				(* END_IF *)
#533		
#534		
#535				(* IF curSeq = 26 *)
#536				LD		curSeq	{LNXT:151|-1|-1}
(*) UNDEF
3000071A  F8DF 7228		ldr r7, [pc, #+552] ; 0x200002B6
3000071E  F9B7 0000		ldrsh r0, [r7]

#537				EQ		26	{LNXT:151|-1|-1}
(*) INT
30000722  281A     		cmp r0, #26
30000724  BF18 2000		nemov r0, #0
30000728  BF08 2001		eqmov r0, #1

#538				JMPCN	$label30	{LNXT:151|152|157}
(-) BOOL
3000072C  2800     		cmp r0, #0
3000072E  D00F     		beq #30 ; 0x30000750


#539		
#540				(* THEN *)
#541		
#542					(* XPOSOUT := XPOS0 + 2505; *)
#543					LD		XPOS0	{LNXT:152|153|-1}
(*) UNDEF
30000732  F8DF 71DC		ldr r7, [pc, #+476] ; 0x2
30000736  5FF0     		ldrsh r0, [r6, +r7]

#544					ADD		2505	{LNXT:152|153|-1}
(*) INT
30000738  F8DF 7200		ldr r7, [pc, #+512] ; 0x9C9
3000073C  463F     		mov r7, r7
3000073E  19C0     		add r0, r0, r7

#545					ST		XPOSOUT	{LNXT:152|153|-1}
(-) INT
30000740  81B0     		strh r0, [r6, #12]

#546		
#547					(* YPOSOUT := YPOS0 + 450; *)
#548					LD		YPOS0	{LNXT:153|157|-1}
(*) UNDEF
30000742  F9B6 0000		ldrsh r0, [r6]

#549					ADD		450	{LNXT:153|157|-1}
(*) INT
30000746  F44F 77E1		mov r7, #450 ; 450
3000074A  B23F     		sxth r7, r7
3000074C  19C0     		add r0, r0, r7

#550					ST		YPOSOUT	{LNXT:153|157|-1}
(-) INT
3000074E  81F0     		strh r0, [r6, #14]

#551		
#552		$label30:
#553				(* END_IF *)
#554		
#555		
#556				(* IF XPOSOUT = XPOSACT) AND (YPOSOUT = YPOSACT *)
#557				LD		YPOSOUT	{LNXT:157|-1|-1}
(*) UNDEF
30000750  F8DF 71D0		ldr r7, [pc, #+464] ; 0xE
30000754  5FF0     		ldrsh r0, [r6, +r7]

#558				EQ		YPOSACT	{LNXT:157|-1|-1}
(*) INT
30000756  F8DF 71C0		ldr r7, [pc, #+448] ; 0x6
3000075A  5FF7     		ldrsh r7, [r6, +r7]
3000075C  42B8     		cmp r0, r7
3000075E  BF18 2000		nemov r0, #0
30000762  BF08 2001		eqmov r0, #1

#559				AND(		XPOSOUT	{LNXT:157|-1|-1}
(*) BOOL
30000766  B082     		sub sp, sp, #8
30000768  F8CD 0000		str r0, [sp]
3000076C  F8DF 71B0		ldr r7, [pc, #+432] ; 0xC
30000770  5FF0     		ldrsh r0, [r6, +r7]

#560				EQ		XPOSACT	{LNXT:157|-1|-1}
(*) INT
30000772  F8DF 71A0		ldr r7, [pc, #+416] ; 0x4
30000776  5FF7     		ldrsh r7, [r6, +r7]
30000778  42B8     		cmp r0, r7
3000077A  BF18 2000		nemov r0, #0
3000077E  BF08 2001		eqmov r0, #1

#561				)	{LNXT:157|-1|-1}
(*) BOOL
30000782  4607     		mov r7, r0
30000784  F8DD 0000		ldr r0, [sp]
30000788  B002     		add sp, sp, #8
3000078A  4038     		and r0, r0, r7

#562				JMPCN	$label31	{LNXT:157|158|164}
(-) BOOL
3000078C  2800     		cmp r0, #0
3000078E  D008     		beq #16 ; 0x300007A2


#563		
#564				(* THEN *)
#565		
#566					(* curSeq := curSeq + 1; *)
#567					LD		curSeq	{LNXT:158|164|-1}
(*) UNDEF
30000792  F8DF 71B0		ldr r7, [pc, #+432] ; 0x200002B6
30000796  F9B7 0000		ldrsh r0, [r7]

#568					ADD		1	{LNXT:158|164|-1}
(-) INT
3000079A  1C40     		add r0, r0, #1

#569					ST		curSeq	{LNXT:158|164|-1}
(*) INT
3000079C  F8DF 71A4		ldr r7, [pc, #+420] ; 0x200002B6
300007A0  8038     		strh r0, [r7]

#570		
#571		$label31:
#572				(* END_IF *)
#573		
#574		
#575				(* IF curSeq > 26 *)
#576				LD		curSeq	{LNXT:164|-1|-1}
(*) UNDEF
300007A2  F8DF 71A0		ldr r7, [pc, #+416] ; 0x200002B6
300007A6  F9B7 0000		ldrsh r0, [r7]

#577				GT		26	{LNXT:164|-1|-1}
(*) INT
300007AA  281A     		cmp r0, #26
300007AC  BFD8 2000		lemov r0, #0
300007B0  BFC8 2001		gtmov r0, #1

#578				JMPCN	$label32	{LNXT:164|165|173}
(-) BOOL
300007B4  2800     		cmp r0, #0
300007B6  D00D     		beq #26 ; 0x300007D4


#579		
#580				(* THEN *)
#581		
#582					(* curSeq := 100; *)
#583					MOVE		100,curSeq	{LNXT:165|166|-1}
(*) BOOL
300007BA  2064     		mov r0, #100 ; 100
300007BC  F8DF 7184		ldr r7, [pc, #+388] ; 0x200002B6
300007C0  8038     		strh r0, [r7]

#584		
#585					(* LASERPWM := 0.0; *)
#586					MOVE		0.0,LASERPWM	{LNXT:166|173|-1}
(*) INT
300007C2  F8DF 0148		ldr r0, [pc, #+328] ; 0x0 = 0.000000
300007C6  EE00 0A10		fmsr s0, r0
300007CA  F8DF 7150		ldr r7, [pc, #+336] ; 0x8
300007CE  19BF     		add r7, r7, r6
300007D0  ED87 0A00		fsts s0, [r7]

#587		
#588		$label32:
#589				(* END_IF *)
#590		
#591		$label21:
#592			(* END_IF *)
#593		
#594		
#595			(* IF cutDigit = 3 *)
#596			LD		cutDigit	{LNXT:173|-1|-1}
(*) UNDEF
300007D4  F8DF 7168		ldr r7, [pc, #+360] ; 0x200002B4
300007D8  F9B7 0000		ldrsh r0, [r7]

#597			EQ		3	{LNXT:173|-1|-1}
(*) INT
300007DC  2803     		cmp r0, #3
300007DE  BF18 2000		nemov r0, #0
300007E2  BF08 2001		eqmov r0, #1

#598			JMPCN	$label33	{LNXT:173|175|240}
(-) BOOL
300007E6  2800     		cmp r0, #0
300007E8  F000 816D		beq #730 ; 0x30000AC6


#599		
#600			(* THEN *)
#601		
#602		
#603				(* IF curSeq = 20 *)
#604				LD		curSeq	{LNXT:175|-1|-1}
(*) UNDEF
300007EC  F8DF 7154		ldr r7, [pc, #+340] ; 0x200002B6
300007F0  F9B7 0000		ldrsh r0, [r7]

#605				EQ		20	{LNXT:175|-1|-1}
(*) INT
300007F4  2814     		cmp r0, #20
300007F6  BF18 2000		nemov r0, #0
300007FA  BF08 2001		eqmov r0, #1

#606				JMPCN	$label34	{LNXT:175|176|182}
(-) BOOL
300007FE  2800     		cmp r0, #0
30000800  D00F     		beq #30 ; 0x30000822


#607		
#608				(* THEN *)
#609		
#610					(* XPOSOUT := XPOS0 + 450; *)
#611					LD		XPOS0	{LNXT:176|177|-1}
(*) UNDEF
30000804  F8DF 7108		ldr r7, [pc, #+264] ; 0x2
30000808  5FF0     		ldrsh r0, [r6, +r7]

#612					ADD		450	{LNXT:176|177|-1}
(*) INT
3000080A  F44F 77E1		mov r7, #450 ; 450
3000080E  B23F     		sxth r7, r7
30000810  19C0     		add r0, r0, r7

#613					ST		XPOSOUT	{LNXT:176|177|-1}
(-) INT
30000812  81B0     		strh r0, [r6, #12]

#614		
#615					(* YPOSOUT := YPOS0 + 1520; *)
#616					LD		YPOS0	{LNXT:177|182|-1}
(*) UNDEF
30000814  F9B6 0000		ldrsh r0, [r6]

#617					ADD		1520	{LNXT:177|182|-1}
(*) INT
30000818  F44F 67BE		mov r7, #1520 ; 1520
3000081C  B23F     		sxth r7, r7
3000081E  19C0     		add r0, r0, r7

#618					ST		YPOSOUT	{LNXT:177|182|-1}
(-) INT
30000820  81F0     		strh r0, [r6, #14]

#619		
#620		$label34:
#621				(* END_IF *)
#622		
#623		
#624				(* IF curSeq > 20) AND (curSeq < 100 *)
#625				LD		curSeq	{LNXT:182|-1|-1}
(*) UNDEF
30000822  F8DF 7120		ldr r7, [pc, #+288] ; 0x200002B6
30000826  F9B7 0000		ldrsh r0, [r7]

#626				LT		100	{LNXT:182|-1|-1}
(*) INT
3000082A  2864     		cmp r0, #100
3000082C  BFA8 2000		gemov r0, #0
30000830  BFB8 2001		ltmov r0, #1

#627				AND(		curSeq	{LNXT:182|-1|-1}
(*) BOOL
30000834  B082     		sub sp, sp, #8
30000836  F8CD 0000		str r0, [sp]
3000083A  F8DF 7108		ldr r7, [pc, #+264] ; 0x200002B6
3000083E  F9B7 0000		ldrsh r0, [r7]

#628				GT		20	{LNXT:182|-1|-1}
(*) INT
30000842  2814     		cmp r0, #20
30000844  BFD8 2000		lemov r0, #0
30000848  BFC8 2001		gtmov r0, #1

#629				)	{LNXT:182|-1|-1}
(*) BOOL
3000084C  4607     		mov r7, r0
3000084E  F8DD 0000		ldr r0, [sp]
30000852  B002     		add sp, sp, #8
30000854  4038     		and r0, r0, r7

#630				JMPCN	$label35	{LNXT:182|183|185}
(-) BOOL
30000856  2800     		cmp r0, #0
30000858  D00B     		beq #22 ; 0x30000872


#631		
#632				(* THEN *)
#633		
#634					(* LASERPWM := 0.8; *)
#635					MOVE		0.8,LASERPWM	{LNXT:183|188|-1}
(*) BOOL
3000085C  F8DF 00E8		ldr r0, [pc, #+232] ; 0x3F4CCCCD = 0.800000
30000860  EE00 0A10		fmsr s0, r0
30000864  F8DF 70B4		ldr r7, [pc, #+180] ; 0x8
30000868  19BF     		add r7, r7, r6
3000086A  ED87 0A00		fsts s0, [r7]

#636					JMP		$label36	{LNXT:182|183|185}
(-) REAL
3000086E  E009     		b #18 ; 0x30000884


#637		$label35:
#638		
#639				(* ELSE *)
#640		
#641					(* LASERPWM := 0.0; *)
#642					MOVE		0.0,LASERPWM	{LNXT:185|188|-1}
(*) REAL
30000872  F8DF 0098		ldr r0, [pc, #+152] ; 0x0 = 0.000000
30000876  EE00 0A10		fmsr s0, r0
3000087A  F8DF 70A0		ldr r7, [pc, #+160] ; 0x8
3000087E  19BF     		add r7, r7, r6
30000880  ED87 0A00		fsts s0, [r7]

#643		
#644		$label36:
#645				(* END_IF *)
#646		
#647		
#648				(* IF curSeq = 21 *)
#649				LD		curSeq	{LNXT:188|-1|-1}
(*) UNDEF
30000884  F8DF 70BC		ldr r7, [pc, #+188] ; 0x200002B6
30000888  F9B7 0000		ldrsh r0, [r7]

#650				EQ		21	{LNXT:188|-1|-1}
(*) INT
3000088C  2815     		cmp r0, #21
3000088E  BF18 2000		nemov r0, #0
30000892  BF08 2001		eqmov r0, #1

#651				JMPCN	$label37	{LNXT:188|189|193}
(-) BOOL
30000896  2800     		cmp r0, #0
30000898  D00F     		beq #30 ; 0x300008BA


#652		
#653				(* THEN *)
#654		
#655					(* XPOSOUT := XPOS0 + 450; *)
#656					LD		XPOS0	{LNXT:189|190|-1}
(*) UNDEF
3000089C  F8DF 7070		ldr r7, [pc, #+112] ; 0x2
300008A0  5FF0     		ldrsh r0, [r6, +r7]

#657					ADD		450	{LNXT:189|190|-1}
(*) INT
300008A2  F44F 77E1		mov r7, #450 ; 450
300008A6  B23F     		sxth r7, r7
300008A8  19C0     		add r0, r0, r7

#658					ST		XPOSOUT	{LNXT:189|190|-1}
(-) INT
300008AA  81B0     		strh r0, [r6, #12]

#659		
#660					(* YPOSOUT := YPOS0 + 450; *)
#661					LD		YPOS0	{LNXT:190|193|-1}
(*) UNDEF
300008AC  F9B6 0000		ldrsh r0, [r6]

#662					ADD		450	{LNXT:190|193|-1}
(*) INT
300008B0  F44F 77E1		mov r7, #450 ; 450
300008B4  B23F     		sxth r7, r7
300008B6  19C0     		add r0, r0, r7

#663					ST		YPOSOUT	{LNXT:190|193|-1}
(-) INT
300008B8  81F0     		strh r0, [r6, #14]

#664		
#665		$label37:
#666				(* END_IF *)
#667		
#668		
#669				(* IF curSeq = 22 *)
#670				LD		curSeq	{LNXT:193|-1|-1}
(*) UNDEF
300008BA  F8DF 7088		ldr r7, [pc, #+136] ; 0x200002B6
300008BE  F9B7 0000		ldrsh r0, [r7]

#671				EQ		22	{LNXT:193|-1|-1}
(*) INT
300008C2  2816     		cmp r0, #22
300008C4  BF18 2000		nemov r0, #0
300008C8  BF08 2001		eqmov r0, #1

#672				JMPCN	$label38	{LNXT:193|194|198}
(-) BOOL
300008CC  2800     		cmp r0, #0
300008CE  D00F     		beq #30 ; 0x300008F0


#673		
#674				(* THEN *)
#675		
#676					(* XPOSOUT := XPOS0 + 1475; *)
#677					LD		XPOS0	{LNXT:194|195|-1}
(*) UNDEF
300008D2  F8DF 703C		ldr r7, [pc, #+60] ; 0x2
300008D6  5FF0     		ldrsh r0, [r6, +r7]

#678					ADD		1475	{LNXT:194|195|-1}
(*) INT
300008D8  F8DF 7058		ldr r7, [pc, #+88] ; 0x5C3
300008DC  463F     		mov r7, r7
300008DE  19C0     		add r0, r0, r7

#679					ST		XPOSOUT	{LNXT:194|195|-1}
(-) INT
300008E0  81B0     		strh r0, [r6, #12]

#680		
#681					(* YPOSOUT := YPOS0 + 450; *)
#682					LD		YPOS0	{LNXT:195|198|-1}
(*) UNDEF
300008E2  F9B6 0000		ldrsh r0, [r6]

#683					ADD		450	{LNXT:195|198|-1}
(*) INT
300008E6  F44F 77E1		mov r7, #450 ; 450
300008EA  B23F     		sxth r7, r7
300008EC  19C0     		add r0, r0, r7

#684					ST		YPOSOUT	{LNXT:195|198|-1}
(-) INT
300008EE  81F0     		strh r0, [r6, #14]

#685		
#686		$label38:
#687				(* END_IF *)
#688		
#689		
#690				(* IF curSeq = 23 *)
#691				LD		curSeq	{LNXT:198|-1|-1}
(*) UNDEF
300008F0  F8DF 7050		ldr r7, [pc, #+80] ; 0x200002B6
300008F4  F9B7 0000		ldrsh r0, [r7]

#692				EQ		23	{LNXT:198|-1|-1}
(*) INT
300008F8  2817     		cmp r0, #23
300008FA  BF18 2000		nemov r0, #0
300008FE  BF08 2001		eqmov r0, #1

#693				JMPCN	$label39	{LNXT:198|199|203}
(-) BOOL
30000902  2800     		cmp r0, #0
30000904  D031     		beq #98 ; 0x3000096A


30000908  E020     		b #64

3000090C  00000000		; 0x00000000
30000910  00000002		; 0x00000002
30000914  00000004		; 0x00000004
30000918  00000006		; 0x00000006
3000091C  00000008		; 0x00000008
30000920  0000000C		; 0x0000000C
30000924  0000000E		; 0x0000000E
30000928  00000226		; 0x00000226
3000092C  000003D9		; 0x000003D9
30000930  00000517		; 0x00000517
30000934  000005C3		; 0x000005C3
30000938  00000965		; 0x00000965
3000093C  000009C9		; 0x000009C9
30000940  200002B4		; 0x200002B4
30000944  200002B6		; 0x200002B6
30000948  3F4CCCCD		; 0x3F4CCCCD

#694		
#695				(* THEN *)
#696		
#697					(* XPOSOUT := XPOS0 + 1475; *)
#698					LD		XPOS0	{LNXT:199|200|-1}
(*) UNDEF
3000094C  F85F 7040		ldr r7, [pc, #-64] ; 0x2
30000950  5FF0     		ldrsh r0, [r6, +r7]

#699					ADD		1475	{LNXT:199|200|-1}
(*) INT
30000952  F85F 7020		ldr r7, [pc, #-32] ; 0x5C3
30000956  463F     		mov r7, r7
30000958  19C0     		add r0, r0, r7

#700					ST		XPOSOUT	{LNXT:199|200|-1}
(-) INT
3000095A  81B0     		strh r0, [r6, #12]

#701		
#702					(* YPOSOUT := YPOS0 + 1520; *)
#703					LD		YPOS0	{LNXT:200|203|-1}
(*) UNDEF
3000095C  F9B6 0000		ldrsh r0, [r6]

#704					ADD		1520	{LNXT:200|203|-1}
(*) INT
30000960  F44F 67BE		mov r7, #1520 ; 1520
30000964  B23F     		sxth r7, r7
30000966  19C0     		add r0, r0, r7

#705					ST		YPOSOUT	{LNXT:200|203|-1}
(-) INT
30000968  81F0     		strh r0, [r6, #14]

#706		
#707		$label39:
#708				(* END_IF *)
#709		
#710		
#711				(* IF curSeq = 24 *)
#712				LD		curSeq	{LNXT:203|-1|-1}
(*) UNDEF
3000096A  F85F 7028		ldr r7, [pc, #-40] ; 0x200002B6
3000096E  F9B7 0000		ldrsh r0, [r7]

#713				EQ		24	{LNXT:203|-1|-1}
(*) INT
30000972  2818     		cmp r0, #24
30000974  BF18 2000		nemov r0, #0
30000978  BF08 2001		eqmov r0, #1

#714				JMPCN	$label40	{LNXT:203|204|208}
(-) BOOL
3000097C  2800     		cmp r0, #0
3000097E  D00F     		beq #30 ; 0x300009A0


#715		
#716				(* THEN *)
#717		
#718					(* XPOSOUT := XPOS0 + 1575; *)
#719					LD		XPOS0	{LNXT:204|205|-1}
(*) UNDEF
30000982  F85F 7074		ldr r7, [pc, #-116] ; 0x2
30000986  5FF0     		ldrsh r0, [r6, +r7]

#720					ADD		1575	{LNXT:204|205|-1}
(*) INT
30000988  F8DF 77D4		ldr r7, [pc, #+2004] ; 0x627
3000098C  463F     		mov r7, r7
3000098E  19C0     		add r0, r0, r7

#721					ST		XPOSOUT	{LNXT:204|205|-1}
(-) INT
30000990  81B0     		strh r0, [r6, #12]

#722		
#723					(* YPOSOUT := YPOS0 + 1520; *)
#724					LD		YPOS0	{LNXT:205|208|-1}
(*) UNDEF
30000992  F9B6 0000		ldrsh r0, [r6]

#725					ADD		1520	{LNXT:205|208|-1}
(*) INT
30000996  F44F 67BE		mov r7, #1520 ; 1520
3000099A  B23F     		sxth r7, r7
3000099C  19C0     		add r0, r0, r7

#726					ST		YPOSOUT	{LNXT:205|208|-1}
(-) INT
3000099E  81F0     		strh r0, [r6, #14]

#727		
#728		$label40:
#729				(* END_IF *)
#730		
#731		
#732				(* IF curSeq = 25 *)
#733				LD		curSeq	{LNXT:208|-1|-1}
(*) UNDEF
300009A0  F85F 7060		ldr r7, [pc, #-96] ; 0x200002B6
300009A4  F9B7 0000		ldrsh r0, [r7]

#734				EQ		25	{LNXT:208|-1|-1}
(*) INT
300009A8  2819     		cmp r0, #25
300009AA  BF18 2000		nemov r0, #0
300009AE  BF08 2001		eqmov r0, #1

#735				JMPCN	$label41	{LNXT:208|209|213}
(-) BOOL
300009B2  2800     		cmp r0, #0
300009B4  D00F     		beq #30 ; 0x300009D6


#736		
#737				(* THEN *)
#738		
#739					(* XPOSOUT := XPOS0 + 1575; *)
#740					LD		XPOS0	{LNXT:209|210|-1}
(*) UNDEF
300009B8  F85F 70AC		ldr r7, [pc, #-172] ; 0x2
300009BC  5FF0     		ldrsh r0, [r6, +r7]

#741					ADD		1575	{LNXT:209|210|-1}
(*) INT
300009BE  F8DF 77A0		ldr r7, [pc, #+1952] ; 0x627
300009C2  463F     		mov r7, r7
300009C4  19C0     		add r0, r0, r7

#742					ST		XPOSOUT	{LNXT:209|210|-1}
(-) INT
300009C6  81B0     		strh r0, [r6, #12]

#743		
#744					(* YPOSOUT := YPOS0 + 450; *)
#745					LD		YPOS0	{LNXT:210|213|-1}
(*) UNDEF
300009C8  F9B6 0000		ldrsh r0, [r6]

#746					ADD		450	{LNXT:210|213|-1}
(*) INT
300009CC  F44F 77E1		mov r7, #450 ; 450
300009D0  B23F     		sxth r7, r7
300009D2  19C0     		add r0, r0, r7

#747					ST		YPOSOUT	{LNXT:210|213|-1}
(-) INT
300009D4  81F0     		strh r0, [r6, #14]

#748		
#749		$label41:
#750				(* END_IF *)
#751		
#752		
#753				(* IF curSeq = 26 *)
#754				LD		curSeq	{LNXT:213|-1|-1}
(*) UNDEF
300009D6  F85F 7094		ldr r7, [pc, #-148] ; 0x200002B6
300009DA  F9B7 0000		ldrsh r0, [r7]

#755				EQ		26	{LNXT:213|-1|-1}
(*) INT
300009DE  281A     		cmp r0, #26
300009E0  BF18 2000		nemov r0, #0
300009E4  BF08 2001		eqmov r0, #1

#756				JMPCN	$label42	{LNXT:213|214|218}
(-) BOOL
300009E8  2800     		cmp r0, #0
300009EA  D00F     		beq #30 ; 0x30000A0C


#757		
#758				(* THEN *)
#759		
#760					(* XPOSOUT := XPOS0 + 2505; *)
#761					LD		XPOS0	{LNXT:214|215|-1}
(*) UNDEF
300009EE  F85F 70E0		ldr r7, [pc, #-224] ; 0x2
300009F2  5FF0     		ldrsh r0, [r6, +r7]

#762					ADD		2505	{LNXT:214|215|-1}
(*) INT
300009F4  F85F 70BC		ldr r7, [pc, #-188] ; 0x9C9
300009F8  463F     		mov r7, r7
300009FA  19C0     		add r0, r0, r7

#763					ST		XPOSOUT	{LNXT:214|215|-1}
(-) INT
300009FC  81B0     		strh r0, [r6, #12]

#764		
#765					(* YPOSOUT := YPOS0 + 450; *)
#766					LD		YPOS0	{LNXT:215|218|-1}
(*) UNDEF
300009FE  F9B6 0000		ldrsh r0, [r6]

#767					ADD		450	{LNXT:215|218|-1}
(*) INT
30000A02  F44F 77E1		mov r7, #450 ; 450
30000A06  B23F     		sxth r7, r7
30000A08  19C0     		add r0, r0, r7

#768					ST		YPOSOUT	{LNXT:215|218|-1}
(-) INT
30000A0A  81F0     		strh r0, [r6, #14]

#769		
#770		$label42:
#771				(* END_IF *)
#772		
#773		
#774				(* IF curSeq = 27 *)
#775				LD		curSeq	{LNXT:218|-1|-1}
(*) UNDEF
30000A0C  F85F 70CC		ldr r7, [pc, #-204] ; 0x200002B6
30000A10  F9B7 0000		ldrsh r0, [r7]

#776				EQ		27	{LNXT:218|-1|-1}
(*) INT
30000A14  281B     		cmp r0, #27
30000A16  BF18 2000		nemov r0, #0
30000A1A  BF08 2001		eqmov r0, #1

#777				JMPCN	$label43	{LNXT:218|219|224}
(-) BOOL
30000A1E  2800     		cmp r0, #0
30000A20  D00F     		beq #30 ; 0x30000A42


#778		
#779				(* THEN *)
#780		
#781					(* XPOSOUT := XPOS0 + 2505; *)
#782					LD		XPOS0	{LNXT:219|220|-1}
(*) UNDEF
30000A24  F85F 7118		ldr r7, [pc, #-280] ; 0x2
30000A28  5FF0     		ldrsh r0, [r6, +r7]

#783					ADD		2505	{LNXT:219|220|-1}
(*) INT
30000A2A  F85F 70F0		ldr r7, [pc, #-240] ; 0x9C9
30000A2E  463F     		mov r7, r7
30000A30  19C0     		add r0, r0, r7

#784					ST		XPOSOUT	{LNXT:219|220|-1}
(-) INT
30000A32  81B0     		strh r0, [r6, #12]

#785		
#786					(* YPOSOUT := YPOS0 + 1520; *)
#787					LD		YPOS0	{LNXT:220|224|-1}
(*) UNDEF
30000A34  F9B6 0000		ldrsh r0, [r6]

#788					ADD		1520	{LNXT:220|224|-1}
(*) INT
30000A38  F44F 67BE		mov r7, #1520 ; 1520
30000A3C  B23F     		sxth r7, r7
30000A3E  19C0     		add r0, r0, r7

#789					ST		YPOSOUT	{LNXT:220|224|-1}
(-) INT
30000A40  81F0     		strh r0, [r6, #14]

#790		
#791		$label43:
#792				(* END_IF *)
#793		
#794		
#795				(* IF XPOSOUT = XPOSACT) AND (YPOSOUT = YPOSACT *)
#796				LD		YPOSOUT	{LNXT:224|-1|-1}
(*) UNDEF
30000A42  F85F 7120		ldr r7, [pc, #-288] ; 0xE
30000A46  5FF0     		ldrsh r0, [r6, +r7]

#797				EQ		YPOSACT	{LNXT:224|-1|-1}
(*) INT
30000A48  F85F 7134		ldr r7, [pc, #-308] ; 0x6
30000A4C  5FF7     		ldrsh r7, [r6, +r7]
30000A4E  42B8     		cmp r0, r7
30000A50  BF18 2000		nemov r0, #0
30000A54  BF08 2001		eqmov r0, #1

#798				AND(		XPOSOUT	{LNXT:224|-1|-1}
(*) BOOL
30000A58  B082     		sub sp, sp, #8
30000A5A  F8CD 0000		str r0, [sp]
30000A5E  F85F 7140		ldr r7, [pc, #-320] ; 0xC
30000A62  5FF0     		ldrsh r0, [r6, +r7]

#799				EQ		XPOSACT	{LNXT:224|-1|-1}
(*) INT
30000A64  F85F 7154		ldr r7, [pc, #-340] ; 0x4
30000A68  5FF7     		ldrsh r7, [r6, +r7]
30000A6A  42B8     		cmp r0, r7
30000A6C  BF18 2000		nemov r0, #0
30000A70  BF08 2001		eqmov r0, #1

#800				)	{LNXT:224|-1|-1}
(*) BOOL
30000A74  4607     		mov r7, r0
30000A76  F8DD 0000		ldr r0, [sp]
30000A7A  B002     		add sp, sp, #8
30000A7C  4038     		and r0, r0, r7

#801				JMPCN	$label44	{LNXT:224|225|231}
(-) BOOL
30000A7E  2800     		cmp r0, #0
30000A80  D008     		beq #16 ; 0x30000A94


#802		
#803				(* THEN *)
#804		
#805					(* curSeq := curSeq + 1; *)
#806					LD		curSeq	{LNXT:225|231|-1}
(*) UNDEF
30000A84  F85F 7144		ldr r7, [pc, #-324] ; 0x200002B6
30000A88  F9B7 0000		ldrsh r0, [r7]

#807					ADD		1	{LNXT:225|231|-1}
(-) INT
30000A8C  1C40     		add r0, r0, #1

#808					ST		curSeq	{LNXT:225|231|-1}
(*) INT
30000A8E  F85F 714C		ldr r7, [pc, #-332] ; 0x200002B6
30000A92  8038     		strh r0, [r7]

#809		
#810		$label44:
#811				(* END_IF *)
#812		
#813		
#814				(* IF curSeq > 27 *)
#815				LD		curSeq	{LNXT:231|-1|-1}
(*) UNDEF
30000A94  F85F 7154		ldr r7, [pc, #-340] ; 0x200002B6
30000A98  F9B7 0000		ldrsh r0, [r7]

#816				GT		27	{LNXT:231|-1|-1}
(*) INT
30000A9C  281B     		cmp r0, #27
30000A9E  BFD8 2000		lemov r0, #0
30000AA2  BFC8 2001		gtmov r0, #1

#817				JMPCN	$label45	{LNXT:231|232|240}
(-) BOOL
30000AA6  2800     		cmp r0, #0
30000AA8  D00D     		beq #26 ; 0x30000AC6


#818		
#819				(* THEN *)
#820		
#821					(* curSeq := 100; *)
#822					MOVE		100,curSeq	{LNXT:232|233|-1}
(*) BOOL
30000AAC  2064     		mov r0, #100 ; 100
30000AAE  F85F 716C		ldr r7, [pc, #-364] ; 0x200002B6
30000AB2  8038     		strh r0, [r7]

#823		
#824					(* LASERPWM := 0.0; *)
#825					MOVE		0.0,LASERPWM	{LNXT:233|240|-1}
(*) INT
30000AB4  F85F 01AC		ldr r0, [pc, #-428] ; 0x0 = 0.000000
30000AB8  EE00 0A10		fmsr s0, r0
30000ABC  F85F 71A4		ldr r7, [pc, #-420] ; 0x8
30000AC0  19BF     		add r7, r7, r6
30000AC2  ED87 0A00		fsts s0, [r7]

#826		
#827		$label45:
#828				(* END_IF *)
#829		
#830		$label33:
#831			(* END_IF *)
#832		
#833		
#834			(* IF cutDigit = 4 *)
#835			LD		cutDigit	{LNXT:240|-1|-1}
(*) UNDEF
30000AC6  F85F 7188		ldr r7, [pc, #-392] ; 0x200002B4
30000ACA  F9B7 0000		ldrsh r0, [r7]

#836			EQ		4	{LNXT:240|-1|-1}
(*) INT
30000ACE  2804     		cmp r0, #4
30000AD0  BF18 2000		nemov r0, #0
30000AD4  BF08 2001		eqmov r0, #1

#837			JMPCN	$label46	{LNXT:240|242|287}
(-) BOOL
30000AD8  2800     		cmp r0, #0
30000ADA  F000 80DF		beq #446 ; 0x30000C9C


#838		
#839			(* THEN *)
#840		
#841		
#842				(* IF curSeq = 20 *)
#843				LD		curSeq	{LNXT:242|-1|-1}
(*) UNDEF
30000ADE  F85F 719C		ldr r7, [pc, #-412] ; 0x200002B6
30000AE2  F9B7 0000		ldrsh r0, [r7]

#844				EQ		20	{LNXT:242|-1|-1}
(*) INT
30000AE6  2814     		cmp r0, #20
30000AE8  BF18 2000		nemov r0, #0
30000AEC  BF08 2001		eqmov r0, #1

#845				JMPCN	$label47	{LNXT:242|243|249}
(-) BOOL
30000AF0  2800     		cmp r0, #0
30000AF2  D00F     		beq #30 ; 0x30000B14


#846		
#847				(* THEN *)
#848		
#849					(* XPOSOUT := XPOS0 + 1412; *)
#850					LD		XPOS0	{LNXT:243|244|-1}
(*) UNDEF
30000AF6  F85F 71E8		ldr r7, [pc, #-488] ; 0x2
30000AFA  5FF0     		ldrsh r0, [r6, +r7]

#851					ADD		1412	{LNXT:243|244|-1}
(*) INT
30000AFC  F8DF 765C		ldr r7, [pc, #+1628] ; 0x584
30000B00  463F     		mov r7, r7
30000B02  19C0     		add r0, r0, r7

#852					ST		XPOSOUT	{LNXT:243|244|-1}
(-) INT
30000B04  81B0     		strh r0, [r6, #12]

#853		
#854					(* YPOSOUT := YPOS0 + 450; *)
#855					LD		YPOS0	{LNXT:244|249|-1}
(*) UNDEF
30000B06  F9B6 0000		ldrsh r0, [r6]

#856					ADD		450	{LNXT:244|249|-1}
(*) INT
30000B0A  F44F 77E1		mov r7, #450 ; 450
30000B0E  B23F     		sxth r7, r7
30000B10  19C0     		add r0, r0, r7

#857					ST		YPOSOUT	{LNXT:244|249|-1}
(-) INT
30000B12  81F0     		strh r0, [r6, #14]

#858		
#859		$label47:
#860				(* END_IF *)
#861		
#862		
#863				(* IF curSeq > 20) AND (curSeq < 100 *)
#864				LD		curSeq	{LNXT:249|-1|-1}
(*) UNDEF
30000B14  F85F 71D4		ldr r7, [pc, #-468] ; 0x200002B6
30000B18  F9B7 0000		ldrsh r0, [r7]

#865				LT		100	{LNXT:249|-1|-1}
(*) INT
30000B1C  2864     		cmp r0, #100
30000B1E  BFA8 2000		gemov r0, #0
30000B22  BFB8 2001		ltmov r0, #1

#866				AND(		curSeq	{LNXT:249|-1|-1}
(*) BOOL
30000B26  B082     		sub sp, sp, #8
30000B28  F8CD 0000		str r0, [sp]
30000B2C  F85F 71EC		ldr r7, [pc, #-492] ; 0x200002B6
30000B30  F9B7 0000		ldrsh r0, [r7]

#867				GT		20	{LNXT:249|-1|-1}
(*) INT
30000B34  2814     		cmp r0, #20
30000B36  BFD8 2000		lemov r0, #0
30000B3A  BFC8 2001		gtmov r0, #1

#868				)	{LNXT:249|-1|-1}
(*) BOOL
30000B3E  4607     		mov r7, r0
30000B40  F8DD 0000		ldr r0, [sp]
30000B44  B002     		add sp, sp, #8
30000B46  4038     		and r0, r0, r7

#869				JMPCN	$label48	{LNXT:249|250|252}
(-) BOOL
30000B48  2800     		cmp r0, #0
30000B4A  D00B     		beq #22 ; 0x30000B64


#870		
#871				(* THEN *)
#872		
#873					(* LASERPWM := 0.8; *)
#874					MOVE		0.8,LASERPWM	{LNXT:250|255|-1}
(*) BOOL
30000B4E  F85F 0208		ldr r0, [pc, #-520] ; 0x3F4CCCCD = 0.800000
30000B52  EE00 0A10		fmsr s0, r0
30000B56  F85F 723C		ldr r7, [pc, #-572] ; 0x8
30000B5A  19BF     		add r7, r7, r6
30000B5C  ED87 0A00		fsts s0, [r7]

#875					JMP		$label49	{LNXT:249|250|252}
(-) REAL
30000B60  E009     		b #18 ; 0x30000B76


#876		$label48:
#877		
#878				(* ELSE *)
#879		
#880					(* LASERPWM := 0.0; *)
#881					MOVE		0.0,LASERPWM	{LNXT:252|255|-1}
(*) REAL
30000B64  F85F 025C		ldr r0, [pc, #-604] ; 0x0 = 0.000000
30000B68  EE00 0A10		fmsr s0, r0
30000B6C  F85F 7254		ldr r7, [pc, #-596] ; 0x8
30000B70  19BF     		add r7, r7, r6
30000B72  ED87 0A00		fsts s0, [r7]

#882		
#883		$label49:
#884				(* END_IF *)
#885		
#886		
#887				(* IF curSeq = 21 *)
#888				LD		curSeq	{LNXT:255|-1|-1}
(*) UNDEF
30000B76  F85F 7234		ldr r7, [pc, #-564] ; 0x200002B6
30000B7A  F9B7 0000		ldrsh r0, [r7]

#889				EQ		21	{LNXT:255|-1|-1}
(*) INT
30000B7E  2815     		cmp r0, #21
30000B80  BF18 2000		nemov r0, #0
30000B84  BF08 2001		eqmov r0, #1

#890				JMPCN	$label50	{LNXT:255|256|260}
(-) BOOL
30000B88  2800     		cmp r0, #0
30000B8A  D00F     		beq #30 ; 0x30000BAC


#891		
#892				(* THEN *)
#893		
#894					(* XPOSOUT := XPOS0 + 1412; *)
#895					LD		XPOS0	{LNXT:256|257|-1}
(*) UNDEF
30000B8E  F85F 7280		ldr r7, [pc, #-640] ; 0x2
30000B92  5FF0     		ldrsh r0, [r6, +r7]

#896					ADD		1412	{LNXT:256|257|-1}
(*) INT
30000B94  F8DF 75C4		ldr r7, [pc, #+1476] ; 0x584
30000B98  463F     		mov r7, r7
30000B9A  19C0     		add r0, r0, r7

#897					ST		XPOSOUT	{LNXT:256|257|-1}
(-) INT
30000B9C  81B0     		strh r0, [r6, #12]

#898		
#899					(* YPOSOUT := YPOS0 + 1520; *)
#900					LD		YPOS0	{LNXT:257|260|-1}
(*) UNDEF
30000B9E  F9B6 0000		ldrsh r0, [r6]

#901					ADD		1520	{LNXT:257|260|-1}
(*) INT
30000BA2  F44F 67BE		mov r7, #1520 ; 1520
30000BA6  B23F     		sxth r7, r7
30000BA8  19C0     		add r0, r0, r7

#902					ST		YPOSOUT	{LNXT:257|260|-1}
(-) INT
30000BAA  81F0     		strh r0, [r6, #14]

#903		
#904		$label50:
#905				(* END_IF *)
#906		
#907		
#908				(* IF curSeq = 22 *)
#909				LD		curSeq	{LNXT:260|-1|-1}
(*) UNDEF
30000BAC  F85F 726C		ldr r7, [pc, #-620] ; 0x200002B6
30000BB0  F9B7 0000		ldrsh r0, [r7]

#910				EQ		22	{LNXT:260|-1|-1}
(*) INT
30000BB4  2816     		cmp r0, #22
30000BB6  BF18 2000		nemov r0, #0
30000BBA  BF08 2001		eqmov r0, #1

#911				JMPCN	$label51	{LNXT:260|261|265}
(-) BOOL
30000BBE  2800     		cmp r0, #0
30000BC0  D00F     		beq #30 ; 0x30000BE2


#912		
#913				(* THEN *)
#914		
#915					(* XPOSOUT := XPOS0 + 450; *)
#916					LD		XPOS0	{LNXT:261|262|-1}
(*) UNDEF
30000BC4  F85F 72B8		ldr r7, [pc, #-696] ; 0x2
30000BC8  5FF0     		ldrsh r0, [r6, +r7]

#917					ADD		450	{LNXT:261|262|-1}
(*) INT
30000BCA  F44F 77E1		mov r7, #450 ; 450
30000BCE  B23F     		sxth r7, r7
30000BD0  19C0     		add r0, r0, r7

#918					ST		XPOSOUT	{LNXT:261|262|-1}
(-) INT
30000BD2  81B0     		strh r0, [r6, #12]

#919		
#920					(* YPOSOUT := YPOS0 + 741; *)
#921					LD		YPOS0	{LNXT:262|265|-1}
(*) UNDEF
30000BD4  F9B6 0000		ldrsh r0, [r6]

#922					ADD		741	{LNXT:262|265|-1}
(*) INT
30000BD8  F8DF 757C		ldr r7, [pc, #+1404] ; 0x2E5
30000BDC  463F     		mov r7, r7
30000BDE  19C0     		add r0, r0, r7

#923					ST		YPOSOUT	{LNXT:262|265|-1}
(-) INT
30000BE0  81F0     		strh r0, [r6, #14]

#924		
#925		$label51:
#926				(* END_IF *)
#927		
#928		
#929				(* IF curSeq = 23 *)
#930				LD		curSeq	{LNXT:265|-1|-1}
(*) UNDEF
30000BE2  F85F 72A0		ldr r7, [pc, #-672] ; 0x200002B6
30000BE6  F9B7 0000		ldrsh r0, [r7]

#931				EQ		23	{LNXT:265|-1|-1}
(*) INT
30000BEA  2817     		cmp r0, #23
30000BEC  BF18 2000		nemov r0, #0
30000BF0  BF08 2001		eqmov r0, #1

#932				JMPCN	$label52	{LNXT:265|266|271}
(-) BOOL
30000BF4  2800     		cmp r0, #0
30000BF6  D00F     		beq #30 ; 0x30000C18


#933		
#934				(* THEN *)
#935		
#936					(* XPOSOUT := XPOS0 + 2505; *)
#937					LD		XPOS0	{LNXT:266|267|-1}
(*) UNDEF
30000BFA  F85F 72EC		ldr r7, [pc, #-748] ; 0x2
30000BFE  5FF0     		ldrsh r0, [r6, +r7]

#938					ADD		2505	{LNXT:266|267|-1}
(*) INT
30000C00  F85F 72C8		ldr r7, [pc, #-712] ; 0x9C9
30000C04  463F     		mov r7, r7
30000C06  19C0     		add r0, r0, r7

#939					ST		XPOSOUT	{LNXT:266|267|-1}
(-) INT
30000C08  81B0     		strh r0, [r6, #12]

#940		
#941					(* YPOSOUT := YPOS0 + 741; *)
#942					LD		YPOS0	{LNXT:267|271|-1}
(*) UNDEF
30000C0A  F9B6 0000		ldrsh r0, [r6]

#943					ADD		741	{LNXT:267|271|-1}
(*) INT
30000C0E  F8DF 7548		ldr r7, [pc, #+1352] ; 0x2E5
30000C12  463F     		mov r7, r7
30000C14  19C0     		add r0, r0, r7

#944					ST		YPOSOUT	{LNXT:267|271|-1}
(-) INT
30000C16  81F0     		strh r0, [r6, #14]

#945		
#946		$label52:
#947				(* END_IF *)
#948		
#949		
#950				(* IF XPOSOUT = XPOSACT) AND (YPOSOUT = YPOSACT *)
#951				LD		YPOSOUT	{LNXT:271|-1|-1}
(*) UNDEF
30000C18  F85F 72F8		ldr r7, [pc, #-760] ; 0xE
30000C1C  5FF0     		ldrsh r0, [r6, +r7]

#952				EQ		YPOSACT	{LNXT:271|-1|-1}
(*) INT
30000C1E  F85F 7308		ldr r7, [pc, #-776] ; 0x6
30000C22  5FF7     		ldrsh r7, [r6, +r7]
30000C24  42B8     		cmp r0, r7
30000C26  BF18 2000		nemov r0, #0
30000C2A  BF08 2001		eqmov r0, #1

#953				AND(		XPOSOUT	{LNXT:271|-1|-1}
(*) BOOL
30000C2E  B082     		sub sp, sp, #8
30000C30  F8CD 0000		str r0, [sp]
30000C34  F85F 7318		ldr r7, [pc, #-792] ; 0xC
30000C38  5FF0     		ldrsh r0, [r6, +r7]

#954				EQ		XPOSACT	{LNXT:271|-1|-1}
(*) INT
30000C3A  F85F 7328		ldr r7, [pc, #-808] ; 0x4
30000C3E  5FF7     		ldrsh r7, [r6, +r7]
30000C40  42B8     		cmp r0, r7
30000C42  BF18 2000		nemov r0, #0
30000C46  BF08 2001		eqmov r0, #1

#955				)	{LNXT:271|-1|-1}
(*) BOOL
30000C4A  4607     		mov r7, r0
30000C4C  F8DD 0000		ldr r0, [sp]
30000C50  B002     		add sp, sp, #8
30000C52  4038     		and r0, r0, r7

#956				JMPCN	$label53	{LNXT:271|272|278}
(-) BOOL
30000C54  2800     		cmp r0, #0
30000C56  D008     		beq #16 ; 0x30000C6A


#957		
#958				(* THEN *)
#959		
#960					(* curSeq := curSeq + 1; *)
#961					LD		curSeq	{LNXT:272|278|-1}
(*) UNDEF
30000C5A  F85F 7318		ldr r7, [pc, #-792] ; 0x200002B6
30000C5E  F9B7 0000		ldrsh r0, [r7]

#962					ADD		1	{LNXT:272|278|-1}
(-) INT
30000C62  1C40     		add r0, r0, #1

#963					ST		curSeq	{LNXT:272|278|-1}
(*) INT
30000C64  F85F 7324		ldr r7, [pc, #-804] ; 0x200002B6
30000C68  8038     		strh r0, [r7]

#964		
#965		$label53:
#966				(* END_IF *)
#967		
#968		
#969				(* IF curSeq > 23 *)
#970				LD		curSeq	{LNXT:278|-1|-1}
(*) UNDEF
30000C6A  F85F 7328		ldr r7, [pc, #-808] ; 0x200002B6
30000C6E  F9B7 0000		ldrsh r0, [r7]

#971				GT		23	{LNXT:278|-1|-1}
(*) INT
30000C72  2817     		cmp r0, #23
30000C74  BFD8 2000		lemov r0, #0
30000C78  BFC8 2001		gtmov r0, #1

#972				JMPCN	$label54	{LNXT:278|279|287}
(-) BOOL
30000C7C  2800     		cmp r0, #0
30000C7E  D00D     		beq #26 ; 0x30000C9C


#973		
#974				(* THEN *)
#975		
#976					(* curSeq := 100; *)
#977					MOVE		100,curSeq	{LNXT:279|280|-1}
(*) BOOL
30000C82  2064     		mov r0, #100 ; 100
30000C84  F85F 7344		ldr r7, [pc, #-836] ; 0x200002B6
30000C88  8038     		strh r0, [r7]

#978		
#979					(* LASERPWM := 0.0; *)
#980					MOVE		0.0,LASERPWM	{LNXT:280|287|-1}
(*) INT
30000C8A  F85F 0380		ldr r0, [pc, #-896] ; 0x0 = 0.000000
30000C8E  EE00 0A10		fmsr s0, r0
30000C92  F85F 7378		ldr r7, [pc, #-888] ; 0x8
30000C96  19BF     		add r7, r7, r6
30000C98  ED87 0A00		fsts s0, [r7]

#981		
#982		$label54:
#983				(* END_IF *)
#984		
#985		$label46:
#986			(* END_IF *)
#987		
#988		
#989			(* IF cutDigit = 5 *)
#990			LD		cutDigit	{LNXT:287|-1|-1}
(*) UNDEF
30000C9C  F85F 7360		ldr r7, [pc, #-864] ; 0x200002B4
30000CA0  F9B7 0000		ldrsh r0, [r7]

#991			EQ		5	{LNXT:287|-1|-1}
(*) INT
30000CA4  2805     		cmp r0, #5
30000CA6  BF18 2000		nemov r0, #0
30000CAA  BF08 2001		eqmov r0, #1

#992			JMPCN	$label55	{LNXT:287|289|344}
(-) BOOL
30000CAE  2800     		cmp r0, #0
30000CB0  F000 8115		beq #554 ; 0x30000EDE


#993		
#994			(* THEN *)
#995		
#996		
#997				(* IF curSeq = 20 *)
#998				LD		curSeq	{LNXT:289|-1|-1}
(*) UNDEF
30000CB4  F85F 7374		ldr r7, [pc, #-884] ; 0x200002B6
30000CB8  F9B7 0000		ldrsh r0, [r7]

#999				EQ		20	{LNXT:289|-1|-1}
(*) INT
30000CBC  2814     		cmp r0, #20
30000CBE  BF18 2000		nemov r0, #0
30000CC2  BF08 2001		eqmov r0, #1

#1000				JMPCN	$label56	{LNXT:289|290|296}
(-) BOOL
30000CC6  2800     		cmp r0, #0
30000CC8  D00F     		beq #30 ; 0x30000CEA


#1001		
#1002				(* THEN *)
#1003		
#1004					(* XPOSOUT := XPOS0 + 450; *)
#1005					LD		XPOS0	{LNXT:290|291|-1}
(*) UNDEF
30000CCC  F85F 73C0		ldr r7, [pc, #-960] ; 0x2
30000CD0  5FF0     		ldrsh r0, [r6, +r7]

#1006					ADD		450	{LNXT:290|291|-1}
(*) INT
30000CD2  F44F 77E1		mov r7, #450 ; 450
30000CD6  B23F     		sxth r7, r7
30000CD8  19C0     		add r0, r0, r7

#1007					ST		XPOSOUT	{LNXT:290|291|-1}
(-) INT
30000CDA  81B0     		strh r0, [r6, #12]

#1008		
#1009					(* YPOSOUT := YPOS0 + 450; *)
#1010					LD		YPOS0	{LNXT:291|296|-1}
(*) UNDEF
30000CDC  F9B6 0000		ldrsh r0, [r6]

#1011					ADD		450	{LNXT:291|296|-1}
(*) INT
30000CE0  F44F 77E1		mov r7, #450 ; 450
30000CE4  B23F     		sxth r7, r7
30000CE6  19C0     		add r0, r0, r7

#1012					ST		YPOSOUT	{LNXT:291|296|-1}
(-) INT
30000CE8  81F0     		strh r0, [r6, #14]

#1013		
#1014		$label56:
#1015				(* END_IF *)
#1016		
#1017		
#1018				(* IF curSeq > 20) AND (curSeq < 100 *)
#1019				LD		curSeq	{LNXT:296|-1|-1}
(*) UNDEF
30000CEA  F85F 73A8		ldr r7, [pc, #-936] ; 0x200002B6
30000CEE  F9B7 0000		ldrsh r0, [r7]

#1020				LT		100	{LNXT:296|-1|-1}
(*) INT
30000CF2  2864     		cmp r0, #100
30000CF4  BFA8 2000		gemov r0, #0
30000CF8  BFB8 2001		ltmov r0, #1

#1021				AND(		curSeq	{LNXT:296|-1|-1}
(*) BOOL
30000CFC  B082     		sub sp, sp, #8
30000CFE  F8CD 0000		str r0, [sp]
30000D02  F85F 73C0		ldr r7, [pc, #-960] ; 0x200002B6
30000D06  F9B7 0000		ldrsh r0, [r7]

#1022				GT		20	{LNXT:296|-1|-1}
(*) INT
30000D0A  2814     		cmp r0, #20
30000D0C  BFD8 2000		lemov r0, #0
30000D10  BFC8 2001		gtmov r0, #1

#1023				)	{LNXT:296|-1|-1}
(*) BOOL
30000D14  4607     		mov r7, r0
30000D16  F8DD 0000		ldr r0, [sp]
30000D1A  B002     		add sp, sp, #8
30000D1C  4038     		and r0, r0, r7

#1024				JMPCN	$label57	{LNXT:296|297|299}
(-) BOOL
30000D1E  2800     		cmp r0, #0
30000D20  D00B     		beq #22 ; 0x30000D3A


#1025		
#1026				(* THEN *)
#1027		
#1028					(* LASERPWM := 0.8; *)
#1029					MOVE		0.8,LASERPWM	{LNXT:297|302|-1}
(*) BOOL
30000D24  F85F 03E0		ldr r0, [pc, #-992] ; 0x3F4CCCCD = 0.800000
30000D28  EE00 0A10		fmsr s0, r0
30000D2C  F85F 7414		ldr r7, [pc, #-1044] ; 0x8
30000D30  19BF     		add r7, r7, r6
30000D32  ED87 0A00		fsts s0, [r7]

#1030					JMP		$label58	{LNXT:296|297|299}
(-) REAL
30000D36  E009     		b #18 ; 0x30000D4C


#1031		$label57:
#1032		
#1033				(* ELSE *)
#1034		
#1035					(* LASERPWM := 0.0; *)
#1036					MOVE		0.0,LASERPWM	{LNXT:299|302|-1}
(*) REAL
30000D3A  F85F 0430		ldr r0, [pc, #-1072] ; 0x0 = 0.000000
30000D3E  EE00 0A10		fmsr s0, r0
30000D42  F85F 7428		ldr r7, [pc, #-1064] ; 0x8
30000D46  19BF     		add r7, r7, r6
30000D48  ED87 0A00		fsts s0, [r7]

#1037		
#1038		$label58:
#1039				(* END_IF *)
#1040		
#1041		
#1042				(* IF curSeq = 21 *)
#1043				LD		curSeq	{LNXT:302|-1|-1}
(*) UNDEF
30000D4C  F85F 740C		ldr r7, [pc, #-1036] ; 0x200002B6
30000D50  F9B7 0000		ldrsh r0, [r7]

#1044				EQ		21	{LNXT:302|-1|-1}
(*) INT
30000D54  2815     		cmp r0, #21
30000D56  BF18 2000		nemov r0, #0
30000D5A  BF08 2001		eqmov r0, #1

#1045				JMPCN	$label59	{LNXT:302|303|307}
(-) BOOL
30000D5E  2800     		cmp r0, #0
30000D60  D00F     		beq #30 ; 0x30000D82


#1046		
#1047				(* THEN *)
#1048		
#1049					(* XPOSOUT := XPOS0 + 450; *)
#1050					LD		XPOS0	{LNXT:303|304|-1}
(*) UNDEF
30000D64  F85F 7458		ldr r7, [pc, #-1112] ; 0x2
30000D68  5FF0     		ldrsh r0, [r6, +r7]

#1051					ADD		450	{LNXT:303|304|-1}
(*) INT
30000D6A  F44F 77E1		mov r7, #450 ; 450
30000D6E  B23F     		sxth r7, r7
30000D70  19C0     		add r0, r0, r7

#1052					ST		XPOSOUT	{LNXT:303|304|-1}
(-) INT
30000D72  81B0     		strh r0, [r6, #12]

#1053		
#1054					(* YPOSOUT := YPOS0 + 1520; *)
#1055					LD		YPOS0	{LNXT:304|307|-1}
(*) UNDEF
30000D74  F9B6 0000		ldrsh r0, [r6]

#1056					ADD		1520	{LNXT:304|307|-1}
(*) INT
30000D78  F44F 67BE		mov r7, #1520 ; 1520
30000D7C  B23F     		sxth r7, r7
30000D7E  19C0     		add r0, r0, r7

#1057					ST		YPOSOUT	{LNXT:304|307|-1}
(-) INT
30000D80  81F0     		strh r0, [r6, #14]

#1058		
#1059		$label59:
#1060				(* END_IF *)
#1061		
#1062		
#1063				(* IF curSeq = 22 *)
#1064				LD		curSeq	{LNXT:307|-1|-1}
(*) UNDEF
30000D82  F85F 7440		ldr r7, [pc, #-1088] ; 0x200002B6
30000D86  F9B7 0000		ldrsh r0, [r7]

#1065				EQ		22	{LNXT:307|-1|-1}
(*) INT
30000D8A  2816     		cmp r0, #22
30000D8C  BF18 2000		nemov r0, #0
30000D90  BF08 2001		eqmov r0, #1

#1066				JMPCN	$label60	{LNXT:307|308|312}
(-) BOOL
30000D94  2800     		cmp r0, #0
30000D96  D00F     		beq #30 ; 0x30000DB8


#1067		
#1068				(* THEN *)
#1069		
#1070					(* XPOSOUT := XPOS0 + 1480; *)
#1071					LD		XPOS0	{LNXT:308|309|-1}
(*) UNDEF
30000D9A  F85F 748C		ldr r7, [pc, #-1164] ; 0x2
30000D9E  5FF0     		ldrsh r0, [r6, +r7]

#1072					ADD		1480	{LNXT:308|309|-1}
(*) INT
30000DA0  F44F 67B9		mov r7, #1480 ; 1480
30000DA4  B23F     		sxth r7, r7
30000DA6  19C0     		add r0, r0, r7

#1073					ST		XPOSOUT	{LNXT:308|309|-1}
(-) INT
30000DA8  81B0     		strh r0, [r6, #12]

#1074		
#1075					(* YPOSOUT := YPOS0 + 1520; *)
#1076					LD		YPOS0	{LNXT:309|312|-1}
(*) UNDEF
30000DAA  F9B6 0000		ldrsh r0, [r6]

#1077					ADD		1520	{LNXT:309|312|-1}
(*) INT
30000DAE  F44F 67BE		mov r7, #1520 ; 1520
30000DB2  B23F     		sxth r7, r7
30000DB4  19C0     		add r0, r0, r7

#1078					ST		YPOSOUT	{LNXT:309|312|-1}
(-) INT
30000DB6  81F0     		strh r0, [r6, #14]

#1079		
#1080		$label60:
#1081				(* END_IF *)
#1082		
#1083		
#1084				(* IF curSeq = 23 *)
#1085				LD		curSeq	{LNXT:312|-1|-1}
(*) UNDEF
30000DB8  F85F 7478		ldr r7, [pc, #-1144] ; 0x200002B6
30000DBC  F9B7 0000		ldrsh r0, [r7]

#1086				EQ		23	{LNXT:312|-1|-1}
(*) INT
30000DC0  2817     		cmp r0, #23
30000DC2  BF18 2000		nemov r0, #0
30000DC6  BF08 2001		eqmov r0, #1

#1087				JMPCN	$label61	{LNXT:312|313|317}
(-) BOOL
30000DCA  2800     		cmp r0, #0
30000DCC  D00F     		beq #30 ; 0x30000DEE


#1088		
#1089				(* THEN *)
#1090		
#1091					(* XPOSOUT := XPOS0 + 1480; *)
#1092					LD		XPOS0	{LNXT:313|314|-1}
(*) UNDEF
30000DD0  F85F 74C4		ldr r7, [pc, #-1220] ; 0x2
30000DD4  5FF0     		ldrsh r0, [r6, +r7]

#1093					ADD		1480	{LNXT:313|314|-1}
(*) INT
30000DD6  F44F 67B9		mov r7, #1480 ; 1480
30000DDA  B23F     		sxth r7, r7
30000DDC  19C0     		add r0, r0, r7

#1094					ST		XPOSOUT	{LNXT:313|314|-1}
(-) INT
30000DDE  81B0     		strh r0, [r6, #12]

#1095		
#1096					(* YPOSOUT := YPOS0 + 450; *)
#1097					LD		YPOS0	{LNXT:314|317|-1}
(*) UNDEF
30000DE0  F9B6 0000		ldrsh r0, [r6]

#1098					ADD		450	{LNXT:314|317|-1}
(*) INT
30000DE4  F44F 77E1		mov r7, #450 ; 450
30000DE8  B23F     		sxth r7, r7
30000DEA  19C0     		add r0, r0, r7

#1099					ST		YPOSOUT	{LNXT:314|317|-1}
(-) INT
30000DEC  81F0     		strh r0, [r6, #14]

#1100		
#1101		$label61:
#1102				(* END_IF *)
#1103		
#1104		
#1105				(* IF curSeq = 24 *)
#1106				LD		curSeq	{LNXT:317|-1|-1}
(*) UNDEF
30000DEE  F85F 74AC		ldr r7, [pc, #-1196] ; 0x200002B6
30000DF2  F9B7 0000		ldrsh r0, [r7]

#1107				EQ		24	{LNXT:317|-1|-1}
(*) INT
30000DF6  2818     		cmp r0, #24
30000DF8  BF18 2000		nemov r0, #0
30000DFC  BF08 2001		eqmov r0, #1

#1108				JMPCN	$label62	{LNXT:317|318|322}
(-) BOOL
30000E00  2800     		cmp r0, #0
30000E02  D00F     		beq #30 ; 0x30000E24


#1109		
#1110				(* THEN *)
#1111		
#1112					(* XPOSOUT := XPOS0 + 2505; *)
#1113					LD		XPOS0	{LNXT:318|319|-1}
(*) UNDEF
30000E06  F85F 74F8		ldr r7, [pc, #-1272] ; 0x2
30000E0A  5FF0     		ldrsh r0, [r6, +r7]

#1114					ADD		2505	{LNXT:318|319|-1}
(*) INT
30000E0C  F85F 74D4		ldr r7, [pc, #-1236] ; 0x9C9
30000E10  463F     		mov r7, r7
30000E12  19C0     		add r0, r0, r7

#1115					ST		XPOSOUT	{LNXT:318|319|-1}
(-) INT
30000E14  81B0     		strh r0, [r6, #12]

#1116		
#1117					(* YPOSOUT := YPOS0 + 450; *)
#1118					LD		YPOS0	{LNXT:319|322|-1}
(*) UNDEF
30000E16  F9B6 0000		ldrsh r0, [r6]

#1119					ADD		450	{LNXT:319|322|-1}
(*) INT
30000E1A  F44F 77E1		mov r7, #450 ; 450
30000E1E  B23F     		sxth r7, r7
30000E20  19C0     		add r0, r0, r7

#1120					ST		YPOSOUT	{LNXT:319|322|-1}
(-) INT
30000E22  81F0     		strh r0, [r6, #14]

#1121		
#1122		$label62:
#1123				(* END_IF *)
#1124		
#1125		
#1126				(* IF curSeq = 25 *)
#1127				LD		curSeq	{LNXT:322|-1|-1}
(*) UNDEF
30000E24  F85F 74E4		ldr r7, [pc, #-1252] ; 0x200002B6
30000E28  F9B7 0000		ldrsh r0, [r7]

#1128				EQ		25	{LNXT:322|-1|-1}
(*) INT
30000E2C  2819     		cmp r0, #25
30000E2E  BF18 2000		nemov r0, #0
30000E32  BF08 2001		eqmov r0, #1

#1129				JMPCN	$label63	{LNXT:322|323|328}
(-) BOOL
30000E36  2800     		cmp r0, #0
30000E38  D00F     		beq #30 ; 0x30000E5A


#1130		
#1131				(* THEN *)
#1132		
#1133					(* XPOSOUT := XPOS0 + 2505; *)
#1134					LD		XPOS0	{LNXT:323|324|-1}
(*) UNDEF
30000E3C  F85F 7530		ldr r7, [pc, #-1328] ; 0x2
30000E40  5FF0     		ldrsh r0, [r6, +r7]

#1135					ADD		2505	{LNXT:323|324|-1}
(*) INT
30000E42  F85F 7508		ldr r7, [pc, #-1288] ; 0x9C9
30000E46  463F     		mov r7, r7
30000E48  19C0     		add r0, r0, r7

#1136					ST		XPOSOUT	{LNXT:323|324|-1}
(-) INT
30000E4A  81B0     		strh r0, [r6, #12]

#1137		
#1138					(* YPOSOUT := YPOS0 + 1520; *)
#1139					LD		YPOS0	{LNXT:324|328|-1}
(*) UNDEF
30000E4C  F9B6 0000		ldrsh r0, [r6]

#1140					ADD		1520	{LNXT:324|328|-1}
(*) INT
30000E50  F44F 67BE		mov r7, #1520 ; 1520
30000E54  B23F     		sxth r7, r7
30000E56  19C0     		add r0, r0, r7

#1141					ST		YPOSOUT	{LNXT:324|328|-1}
(-) INT
30000E58  81F0     		strh r0, [r6, #14]

#1142		
#1143		$label63:
#1144				(* END_IF *)
#1145		
#1146		
#1147				(* IF XPOSOUT = XPOSACT) AND (YPOSOUT = YPOSACT *)
#1148				LD		YPOSOUT	{LNXT:328|-1|-1}
(*) UNDEF
30000E5A  F85F 7538		ldr r7, [pc, #-1336] ; 0xE
30000E5E  5FF0     		ldrsh r0, [r6, +r7]

#1149				EQ		YPOSACT	{LNXT:328|-1|-1}
(*) INT
30000E60  F85F 754C		ldr r7, [pc, #-1356] ; 0x6
30000E64  5FF7     		ldrsh r7, [r6, +r7]
30000E66  42B8     		cmp r0, r7
30000E68  BF18 2000		nemov r0, #0
30000E6C  BF08 2001		eqmov r0, #1

#1150				AND(		XPOSOUT	{LNXT:328|-1|-1}
(*) BOOL
30000E70  B082     		sub sp, sp, #8
30000E72  F8CD 0000		str r0, [sp]
30000E76  F85F 7558		ldr r7, [pc, #-1368] ; 0xC
30000E7A  5FF0     		ldrsh r0, [r6, +r7]

#1151				EQ		XPOSACT	{LNXT:328|-1|-1}
(*) INT
30000E7C  F85F 756C		ldr r7, [pc, #-1388] ; 0x4
30000E80  5FF7     		ldrsh r7, [r6, +r7]
30000E82  42B8     		cmp r0, r7
30000E84  BF18 2000		nemov r0, #0
30000E88  BF08 2001		eqmov r0, #1

#1152				)	{LNXT:328|-1|-1}
(*) BOOL
30000E8C  4607     		mov r7, r0
30000E8E  F8DD 0000		ldr r0, [sp]
30000E92  B002     		add sp, sp, #8
30000E94  4038     		and r0, r0, r7

#1153				JMPCN	$label64	{LNXT:328|329|335}
(-) BOOL
30000E96  2800     		cmp r0, #0
30000E98  D008     		beq #16 ; 0x30000EAC


#1154		
#1155				(* THEN *)
#1156		
#1157					(* curSeq := curSeq + 1; *)
#1158					LD		curSeq	{LNXT:329|335|-1}
(*) UNDEF
30000E9C  F85F 755C		ldr r7, [pc, #-1372] ; 0x200002B6
30000EA0  F9B7 0000		ldrsh r0, [r7]

#1159					ADD		1	{LNXT:329|335|-1}
(-) INT
30000EA4  1C40     		add r0, r0, #1

#1160					ST		curSeq	{LNXT:329|335|-1}
(*) INT
30000EA6  F85F 7564		ldr r7, [pc, #-1380] ; 0x200002B6
30000EAA  8038     		strh r0, [r7]

#1161		
#1162		$label64:
#1163				(* END_IF *)
#1164		
#1165		
#1166				(* IF curSeq > 25 *)
#1167				LD		curSeq	{LNXT:335|-1|-1}
(*) UNDEF
30000EAC  F85F 756C		ldr r7, [pc, #-1388] ; 0x200002B6
30000EB0  F9B7 0000		ldrsh r0, [r7]

#1168				GT		25	{LNXT:335|-1|-1}
(*) INT
30000EB4  2819     		cmp r0, #25
30000EB6  BFD8 2000		lemov r0, #0
30000EBA  BFC8 2001		gtmov r0, #1

#1169				JMPCN	$label65	{LNXT:335|336|344}
(-) BOOL
30000EBE  2800     		cmp r0, #0
30000EC0  D00D     		beq #26 ; 0x30000EDE


#1170		
#1171				(* THEN *)
#1172		
#1173					(* curSeq := 100; *)
#1174					MOVE		100,curSeq	{LNXT:336|337|-1}
(*) BOOL
30000EC4  2064     		mov r0, #100 ; 100
30000EC6  F85F 7584		ldr r7, [pc, #-1412] ; 0x200002B6
30000ECA  8038     		strh r0, [r7]

#1175		
#1176					(* LASERPWM := 0.0; *)
#1177					MOVE		0.0,LASERPWM	{LNXT:337|344|-1}
(*) INT
30000ECC  F85F 05C4		ldr r0, [pc, #-1476] ; 0x0 = 0.000000
30000ED0  EE00 0A10		fmsr s0, r0
30000ED4  F85F 75BC		ldr r7, [pc, #-1468] ; 0x8
30000ED8  19BF     		add r7, r7, r6
30000EDA  ED87 0A00		fsts s0, [r7]

#1178		
#1179		$label65:
#1180				(* END_IF *)
#1181		
#1182		$label55:
#1183			(* END_IF *)
#1184		
#1185		
#1186			(* IF cutDigit = 6 *)
#1187			LD		cutDigit	{LNXT:344|-1|-1}
(*) UNDEF
30000EDE  F85F 75A0		ldr r7, [pc, #-1440] ; 0x200002B4
30000EE2  F9B7 0000		ldrsh r0, [r7]

#1188			EQ		6	{LNXT:344|-1|-1}
(*) INT
30000EE6  2806     		cmp r0, #6
30000EE8  BF18 2000		nemov r0, #0
30000EEC  BF08 2001		eqmov r0, #1

#1189			JMPCN	$label66	{LNXT:344|346|405}
(-) BOOL
30000EF0  2800     		cmp r0, #0
30000EF2  F000 8137		beq #622 ; 0x30001164


#1190		
#1191			(* THEN *)
#1192		
#1193		
#1194				(* IF curSeq = 20 *)
#1195				LD		curSeq	{LNXT:346|-1|-1}
(*) UNDEF
30000EF6  F85F 75B4		ldr r7, [pc, #-1460] ; 0x200002B6
30000EFA  F9B7 0000		ldrsh r0, [r7]

#1196				EQ		20	{LNXT:346|-1|-1}
(*) INT
30000EFE  2814     		cmp r0, #20
30000F00  BF18 2000		nemov r0, #0
30000F04  BF08 2001		eqmov r0, #1

#1197				JMPCN	$label67	{LNXT:346|347|353}
(-) BOOL
30000F08  2800     		cmp r0, #0
30000F0A  D00F     		beq #30 ; 0x30000F2C


#1198		
#1199				(* THEN *)
#1200		
#1201					(* XPOSOUT := XPOS0 + 450; *)
#1202					LD		XPOS0	{LNXT:347|348|-1}
(*) UNDEF
30000F0E  F85F 7600		ldr r7, [pc, #-1536] ; 0x2
30000F12  5FF0     		ldrsh r0, [r6, +r7]

#1203					ADD		450	{LNXT:347|348|-1}
(*) INT
30000F14  F44F 77E1		mov r7, #450 ; 450
30000F18  B23F     		sxth r7, r7
30000F1A  19C0     		add r0, r0, r7

#1204					ST		XPOSOUT	{LNXT:347|348|-1}
(-) INT
30000F1C  81B0     		strh r0, [r6, #12]

#1205		
#1206					(* YPOSOUT := YPOS0 + 450; *)
#1207					LD		YPOS0	{LNXT:348|353|-1}
(*) UNDEF
30000F1E  F9B6 0000		ldrsh r0, [r6]

#1208					ADD		450	{LNXT:348|353|-1}
(*) INT
30000F22  F44F 77E1		mov r7, #450 ; 450
30000F26  B23F     		sxth r7, r7
30000F28  19C0     		add r0, r0, r7

#1209					ST		YPOSOUT	{LNXT:348|353|-1}
(-) INT
30000F2A  81F0     		strh r0, [r6, #14]

#1210		
#1211		$label67:
#1212				(* END_IF *)
#1213		
#1214		
#1215				(* IF curSeq > 20) AND (curSeq < 100 *)
#1216				LD		curSeq	{LNXT:353|-1|-1}
(*) UNDEF
30000F2C  F85F 75EC		ldr r7, [pc, #-1516] ; 0x200002B6
30000F30  F9B7 0000		ldrsh r0, [r7]

#1217				LT		100	{LNXT:353|-1|-1}
(*) INT
30000F34  2864     		cmp r0, #100
30000F36  BFA8 2000		gemov r0, #0
30000F3A  BFB8 2001		ltmov r0, #1

#1218				AND(		curSeq	{LNXT:353|-1|-1}
(*) BOOL
30000F3E  B082     		sub sp, sp, #8
30000F40  F8CD 0000		str r0, [sp]
30000F44  F85F 7604		ldr r7, [pc, #-1540] ; 0x200002B6
30000F48  F9B7 0000		ldrsh r0, [r7]

#1219				GT		20	{LNXT:353|-1|-1}
(*) INT
30000F4C  2814     		cmp r0, #20
30000F4E  BFD8 2000		lemov r0, #0
30000F52  BFC8 2001		gtmov r0, #1

#1220				)	{LNXT:353|-1|-1}
(*) BOOL
30000F56  4607     		mov r7, r0
30000F58  F8DD 0000		ldr r0, [sp]
30000F5C  B002     		add sp, sp, #8
30000F5E  4038     		and r0, r0, r7

#1221				JMPCN	$label68	{LNXT:353|354|356}
(-) BOOL
30000F60  2800     		cmp r0, #0
30000F62  D00B     		beq #22 ; 0x30000F7C


#1222		
#1223				(* THEN *)
#1224		
#1225					(* LASERPWM := 0.8; *)
#1226					MOVE		0.8,LASERPWM	{LNXT:354|359|-1}
(*) BOOL
30000F66  F85F 0620		ldr r0, [pc, #-1568] ; 0x3F4CCCCD = 0.800000
30000F6A  EE00 0A10		fmsr s0, r0
30000F6E  F85F 7654		ldr r7, [pc, #-1620] ; 0x8
30000F72  19BF     		add r7, r7, r6
30000F74  ED87 0A00		fsts s0, [r7]

#1227					JMP		$label69	{LNXT:353|354|356}
(-) REAL
30000F78  E009     		b #18 ; 0x30000F8E


#1228		$label68:
#1229		
#1230				(* ELSE *)
#1231		
#1232					(* LASERPWM := 0.0; *)
#1233					MOVE		0.0,LASERPWM	{LNXT:356|359|-1}
(*) REAL
30000F7C  F85F 0674		ldr r0, [pc, #-1652] ; 0x0 = 0.000000
30000F80  EE00 0A10		fmsr s0, r0
30000F84  F85F 766C		ldr r7, [pc, #-1644] ; 0x8
30000F88  19BF     		add r7, r7, r6
30000F8A  ED87 0A00		fsts s0, [r7]

#1234		
#1235		$label69:
#1236				(* END_IF *)
#1237		
#1238		
#1239				(* IF curSeq = 21 *)
#1240				LD		curSeq	{LNXT:359|-1|-1}
(*) UNDEF
30000F8E  F85F 764C		ldr r7, [pc, #-1612] ; 0x200002B6
30000F92  F9B7 0000		ldrsh r0, [r7]

#1241				EQ		21	{LNXT:359|-1|-1}
(*) INT
30000F96  2815     		cmp r0, #21
30000F98  BF18 2000		nemov r0, #0
30000F9C  BF08 2001		eqmov r0, #1

#1242				JMPCN	$label70	{LNXT:359|360|364}
(-) BOOL
30000FA0  2800     		cmp r0, #0
30000FA2  D00F     		beq #30 ; 0x30000FC4


#1243		
#1244				(* THEN *)
#1245		
#1246					(* XPOSOUT := XPOS0 + 450; *)
#1247					LD		XPOS0	{LNXT:360|361|-1}
(*) UNDEF
30000FA6  F85F 7698		ldr r7, [pc, #-1688] ; 0x2
30000FAA  5FF0     		ldrsh r0, [r6, +r7]

#1248					ADD		450	{LNXT:360|361|-1}
(*) INT
30000FAC  F44F 77E1		mov r7, #450 ; 450
30000FB0  B23F     		sxth r7, r7
30000FB2  19C0     		add r0, r0, r7

#1249					ST		XPOSOUT	{LNXT:360|361|-1}
(-) INT
30000FB4  81B0     		strh r0, [r6, #12]

#1250		
#1251					(* YPOSOUT := YPOS0 + 1520; *)
#1252					LD		YPOS0	{LNXT:361|364|-1}
(*) UNDEF
30000FB6  F9B6 0000		ldrsh r0, [r6]

#1253					ADD		1520	{LNXT:361|364|-1}
(*) INT
30000FBA  F44F 67BE		mov r7, #1520 ; 1520
30000FBE  B23F     		sxth r7, r7
30000FC0  19C0     		add r0, r0, r7

#1254					ST		YPOSOUT	{LNXT:361|364|-1}
(-) INT
30000FC2  81F0     		strh r0, [r6, #14]

#1255		
#1256		$label70:
#1257				(* END_IF *)
#1258		
#1259		
#1260				(* IF curSeq = 22 *)
#1261				LD		curSeq	{LNXT:364|-1|-1}
(*) UNDEF
30000FC4  F85F 7684		ldr r7, [pc, #-1668] ; 0x200002B6
30000FC8  F9B7 0000		ldrsh r0, [r7]

#1262				EQ		22	{LNXT:364|-1|-1}
(*) INT
30000FCC  2816     		cmp r0, #22
30000FCE  BF18 2000		nemov r0, #0
30000FD2  BF08 2001		eqmov r0, #1

#1263				JMPCN	$label71	{LNXT:364|365|369}
(-) BOOL
30000FD6  2800     		cmp r0, #0
30000FD8  D00F     		beq #30 ; 0x30000FFA


#1264		
#1265				(* THEN *)
#1266		
#1267					(* XPOSOUT := XPOS0 + 1475; *)
#1268					LD		XPOS0	{LNXT:365|366|-1}
(*) UNDEF
30000FDC  F85F 76D0		ldr r7, [pc, #-1744] ; 0x2
30000FE0  5FF0     		ldrsh r0, [r6, +r7]

#1269					ADD		1475	{LNXT:365|366|-1}
(*) INT
30000FE2  F85F 76B0		ldr r7, [pc, #-1712] ; 0x5C3
30000FE6  463F     		mov r7, r7
30000FE8  19C0     		add r0, r0, r7

#1270					ST		XPOSOUT	{LNXT:365|366|-1}
(-) INT
30000FEA  81B0     		strh r0, [r6, #12]

#1271		
#1272					(* YPOSOUT := YPOS0 + 1520; *)
#1273					LD		YPOS0	{LNXT:366|369|-1}
(*) UNDEF
30000FEC  F9B6 0000		ldrsh r0, [r6]

#1274					ADD		1520	{LNXT:366|369|-1}
(*) INT
30000FF0  F44F 67BE		mov r7, #1520 ; 1520
30000FF4  B23F     		sxth r7, r7
30000FF6  19C0     		add r0, r0, r7

#1275					ST		YPOSOUT	{LNXT:366|369|-1}
(-) INT
30000FF8  81F0     		strh r0, [r6, #14]

#1276		
#1277		$label71:
#1278				(* END_IF *)
#1279		
#1280		
#1281				(* IF curSeq = 23 *)
#1282				LD		curSeq	{LNXT:369|-1|-1}
(*) UNDEF
30000FFA  F85F 76B8		ldr r7, [pc, #-1720] ; 0x200002B6
30000FFE  F9B7 0000		ldrsh r0, [r7]

#1283				EQ		23	{LNXT:369|-1|-1}
(*) INT
30001002  2817     		cmp r0, #23
30001004  BF18 2000		nemov r0, #0
30001008  BF08 2001		eqmov r0, #1

#1284				JMPCN	$label72	{LNXT:369|370|374}
(-) BOOL
3000100C  2800     		cmp r0, #0
3000100E  D00F     		beq #30 ; 0x30001030


#1285		
#1286				(* THEN *)
#1287		
#1288					(* XPOSOUT := XPOS0 + 1475; *)
#1289					LD		XPOS0	{LNXT:370|371|-1}
(*) UNDEF
30001012  F85F 7704		ldr r7, [pc, #-1796] ; 0x2
30001016  5FF0     		ldrsh r0, [r6, +r7]

#1290					ADD		1475	{LNXT:370|371|-1}
(*) INT
30001018  F85F 76E8		ldr r7, [pc, #-1768] ; 0x5C3
3000101C  463F     		mov r7, r7
3000101E  19C0     		add r0, r0, r7

#1291					ST		XPOSOUT	{LNXT:370|371|-1}
(-) INT
30001020  81B0     		strh r0, [r6, #12]

#1292		
#1293					(* YPOSOUT := YPOS0 + 450; *)
#1294					LD		YPOS0	{LNXT:371|374|-1}
(*) UNDEF
30001022  F9B6 0000		ldrsh r0, [r6]

#1295					ADD		450	{LNXT:371|374|-1}
(*) INT
30001026  F44F 77E1		mov r7, #450 ; 450
3000102A  B23F     		sxth r7, r7
3000102C  19C0     		add r0, r0, r7

#1296					ST		YPOSOUT	{LNXT:371|374|-1}
(-) INT
3000102E  81F0     		strh r0, [r6, #14]

#1297		
#1298		$label72:
#1299				(* END_IF *)
#1300		
#1301		
#1302				(* IF curSeq = 24 *)
#1303				LD		curSeq	{LNXT:374|-1|-1}
(*) UNDEF
30001030  F85F 76F0		ldr r7, [pc, #-1776] ; 0x200002B6
30001034  F9B7 0000		ldrsh r0, [r7]

#1304				EQ		24	{LNXT:374|-1|-1}
(*) INT
30001038  2818     		cmp r0, #24
3000103A  BF18 2000		nemov r0, #0
3000103E  BF08 2001		eqmov r0, #1

#1305				JMPCN	$label73	{LNXT:374|375|379}
(-) BOOL
30001042  2800     		cmp r0, #0
30001044  D00F     		beq #30 ; 0x30001066


#1306		
#1307				(* THEN *)
#1308		
#1309					(* XPOSOUT := XPOS0 + 2505; *)
#1310					LD		XPOS0	{LNXT:375|376|-1}
(*) UNDEF
30001048  F85F 773C		ldr r7, [pc, #-1852] ; 0x2
3000104C  5FF0     		ldrsh r0, [r6, +r7]

#1311					ADD		2505	{LNXT:375|376|-1}
(*) INT
3000104E  F85F 7714		ldr r7, [pc, #-1812] ; 0x9C9
30001052  463F     		mov r7, r7
30001054  19C0     		add r0, r0, r7

#1312					ST		XPOSOUT	{LNXT:375|376|-1}
(-) INT
30001056  81B0     		strh r0, [r6, #12]

#1313		
#1314					(* YPOSOUT := YPOS0 + 450; *)
#1315					LD		YPOS0	{LNXT:376|379|-1}
(*) UNDEF
30001058  F9B6 0000		ldrsh r0, [r6]

#1316					ADD		450	{LNXT:376|379|-1}
(*) INT
3000105C  F44F 77E1		mov r7, #450 ; 450
30001060  B23F     		sxth r7, r7
30001062  19C0     		add r0, r0, r7

#1317					ST		YPOSOUT	{LNXT:376|379|-1}
(-) INT
30001064  81F0     		strh r0, [r6, #14]

#1318		
#1319		$label73:
#1320				(* END_IF *)
#1321		
#1322		
#1323				(* IF curSeq = 25 *)
#1324				LD		curSeq	{LNXT:379|-1|-1}
(*) UNDEF
30001066  F85F 7724		ldr r7, [pc, #-1828] ; 0x200002B6
3000106A  F9B7 0000		ldrsh r0, [r7]

#1325				EQ		25	{LNXT:379|-1|-1}
(*) INT
3000106E  2819     		cmp r0, #25
30001070  BF18 2000		nemov r0, #0
30001074  BF08 2001		eqmov r0, #1

#1326				JMPCN	$label74	{LNXT:379|380|384}
(-) BOOL
30001078  2800     		cmp r0, #0
3000107A  D00F     		beq #30 ; 0x3000109C


#1327		
#1328				(* THEN *)
#1329		
#1330					(* XPOSOUT := XPOS0 + 2505; *)
#1331					LD		XPOS0	{LNXT:380|381|-1}
(*) UNDEF
3000107E  F85F 7770		ldr r7, [pc, #-1904] ; 0x2
30001082  5FF0     		ldrsh r0, [r6, +r7]

#1332					ADD		2505	{LNXT:380|381|-1}
(*) INT
30001084  F85F 774C		ldr r7, [pc, #-1868] ; 0x9C9
30001088  463F     		mov r7, r7
3000108A  19C0     		add r0, r0, r7

#1333					ST		XPOSOUT	{LNXT:380|381|-1}
(-) INT
3000108C  81B0     		strh r0, [r6, #12]

#1334		
#1335					(* YPOSOUT := YPOS0 + 1520; *)
#1336					LD		YPOS0	{LNXT:381|384|-1}
(*) UNDEF
3000108E  F9B6 0000		ldrsh r0, [r6]

#1337					ADD		1520	{LNXT:381|384|-1}
(*) INT
30001092  F44F 67BE		mov r7, #1520 ; 1520
30001096  B23F     		sxth r7, r7
30001098  19C0     		add r0, r0, r7

#1338					ST		YPOSOUT	{LNXT:381|384|-1}
(-) INT
3000109A  81F0     		strh r0, [r6, #14]

#1339		
#1340		$label74:
#1341				(* END_IF *)
#1342		
#1343		
#1344				(* IF curSeq = 26 *)
#1345				LD		curSeq	{LNXT:384|-1|-1}
(*) UNDEF
3000109C  F85F 775C		ldr r7, [pc, #-1884] ; 0x200002B6
300010A0  F9B7 0000		ldrsh r0, [r7]

#1346				EQ		26	{LNXT:384|-1|-1}
(*) INT
300010A4  281A     		cmp r0, #26
300010A6  BF18 2000		nemov r0, #0
300010AA  BF08 2001		eqmov r0, #1

#1347				JMPCN	$label75	{LNXT:384|385|390}
(-) BOOL
300010AE  2800     		cmp r0, #0
300010B0  D00F     		beq #30 ; 0x300010D2


#1348		
#1349				(* THEN *)
#1350		
#1351					(* XPOSOUT := XPOS0 + 1575; *)
#1352					LD		XPOS0	{LNXT:385|386|-1}
(*) UNDEF
300010B4  F85F 77A8		ldr r7, [pc, #-1960] ; 0x2
300010B8  5FF0     		ldrsh r0, [r6, +r7]

#1353					ADD		1575	{LNXT:385|386|-1}
(*) INT
300010BA  F8DF 70A4		ldr r7, [pc, #+164] ; 0x627
300010BE  463F     		mov r7, r7
300010C0  19C0     		add r0, r0, r7

#1354					ST		XPOSOUT	{LNXT:385|386|-1}
(-) INT
300010C2  81B0     		strh r0, [r6, #12]

#1355		
#1356					(* YPOSOUT := YPOS0 + 1520; *)
#1357					LD		YPOS0	{LNXT:386|390|-1}
(*) UNDEF
300010C4  F9B6 0000		ldrsh r0, [r6]

#1358					ADD		1520	{LNXT:386|390|-1}
(*) INT
300010C8  F44F 67BE		mov r7, #1520 ; 1520
300010CC  B23F     		sxth r7, r7
300010CE  19C0     		add r0, r0, r7

#1359					ST		YPOSOUT	{LNXT:386|390|-1}
(-) INT
300010D0  81F0     		strh r0, [r6, #14]

#1360		
#1361		$label75:
#1362				(* END_IF *)
#1363		
#1364		
#1365				(* IF XPOSOUT = XPOSACT) AND (YPOSOUT = YPOSACT *)
#1366				LD		YPOSOUT	{LNXT:390|-1|-1}
(*) UNDEF
300010D2  F85F 77B0		ldr r7, [pc, #-1968] ; 0xE
300010D6  5FF0     		ldrsh r0, [r6, +r7]

#1367				EQ		YPOSACT	{LNXT:390|-1|-1}
(*) INT
300010D8  F85F 77C4		ldr r7, [pc, #-1988] ; 0x6
300010DC  5FF7     		ldrsh r7, [r6, +r7]
300010DE  42B8     		cmp r0, r7
300010E0  BF18 2000		nemov r0, #0
300010E4  BF08 2001		eqmov r0, #1

#1368				AND(		XPOSOUT	{LNXT:390|-1|-1}
(*) BOOL
300010E8  B082     		sub sp, sp, #8
300010EA  F8CD 0000		str r0, [sp]
300010EE  F85F 77D0		ldr r7, [pc, #-2000] ; 0xC
300010F2  5FF0     		ldrsh r0, [r6, +r7]

#1369				EQ		XPOSACT	{LNXT:390|-1|-1}
(*) INT
300010F4  F85F 77E4		ldr r7, [pc, #-2020] ; 0x4
300010F8  5FF7     		ldrsh r7, [r6, +r7]
300010FA  42B8     		cmp r0, r7
300010FC  BF18 2000		nemov r0, #0
30001100  BF08 2001		eqmov r0, #1

#1370				)	{LNXT:390|-1|-1}
(*) BOOL
30001104  4607     		mov r7, r0
30001106  F8DD 0000		ldr r0, [sp]
3000110A  B002     		add sp, sp, #8
3000110C  4038     		and r0, r0, r7

#1371				JMPCN	$label76	{LNXT:390|391|396}
(-) BOOL
3000110E  2800     		cmp r0, #0
30001110  D008     		beq #16 ; 0x30001124


#1372		
#1373				(* THEN *)
#1374		
#1375					(* curSeq := curSeq + 1; *)
#1376					LD		curSeq	{LNXT:391|396|-1}
(*) UNDEF
30001114  F85F 77D4		ldr r7, [pc, #-2004] ; 0x200002B6
30001118  F9B7 0000		ldrsh r0, [r7]

#1377					ADD		1	{LNXT:391|396|-1}
(-) INT
3000111C  1C40     		add r0, r0, #1

#1378					ST		curSeq	{LNXT:391|396|-1}
(*) INT
3000111E  F85F 77DC		ldr r7, [pc, #-2012] ; 0x200002B6
30001122  8038     		strh r0, [r7]

#1379		
#1380		$label76:
#1381				(* END_IF *)
#1382		
#1383		
#1384				(* IF curSeq > 26 *)
#1385				LD		curSeq	{LNXT:396|-1|-1}
(*) UNDEF
30001124  F85F 77E4		ldr r7, [pc, #-2020] ; 0x200002B6
30001128  F9B7 0000		ldrsh r0, [r7]

#1386				GT		26	{LNXT:396|-1|-1}
(*) INT
3000112C  281A     		cmp r0, #26
3000112E  BFD8 2000		lemov r0, #0
30001132  BFC8 2001		gtmov r0, #1

#1387				JMPCN	$label77	{LNXT:396|397|405}
(-) BOOL
30001136  2800     		cmp r0, #0
30001138  D014     		beq #40 ; 0x30001164


#1388		
#1389				(* THEN *)
#1390		
#1391					(* curSeq := 100; *)
#1392					MOVE		100,curSeq	{LNXT:397|398|-1}
(*) BOOL
3000113C  2064     		mov r0, #100 ; 100
3000113E  F85F 77FC		ldr r7, [pc, #-2044] ; 0x200002B6
30001142  8038     		strh r0, [r7]

#1393		
#1394					(* LASERPWM := 0.0; *)
#1395					MOVE		0.0,LASERPWM	{LNXT:398|405|-1}
(*) INT
30001144  F85F 083C		ldr r0, [pc, #-2108] ; 0x0 = 0.000000
30001148  EE00 0A10		fmsr s0, r0
3000114C  F85F 7834		ldr r7, [pc, #-2100] ; 0x8
30001150  19BF     		add r7, r7, r6
30001152  ED87 0A00		fsts s0, [r7]

30001156  E005     		b #10

30001158  000002E5		; 0x000002E5
3000115C  00000584		; 0x00000584
30001160  00000627		; 0x00000627

#1396		
#1397		$label77:
#1398				(* END_IF *)
#1399		
#1400		$label66:
#1401			(* END_IF *)
#1402		
#1403		
#1404			(* IF cutDigit = 7 *)
#1405			LD		cutDigit	{LNXT:405|-1|-1}
(*) UNDEF
30001164  F85F 7828		ldr r7, [pc, #-2088] ; 0x200002B4
30001168  F9B7 0000		ldrsh r0, [r7]

#1406			EQ		7	{LNXT:405|-1|-1}
(*) INT
3000116C  2807     		cmp r0, #7
3000116E  BF18 2000		nemov r0, #0
30001172  BF08 2001		eqmov r0, #1

#1407			JMPCN	$label78	{LNXT:405|407|446}
(-) BOOL
30001176  2800     		cmp r0, #0
30001178  F000 80C4		beq #392 ; 0x30001304


#1408		
#1409			(* THEN *)
#1410		
#1411		
#1412				(* IF curSeq = 20 *)
#1413				LD		curSeq	{LNXT:407|-1|-1}
(*) UNDEF
3000117C  F85F 783C		ldr r7, [pc, #-2108] ; 0x200002B6
30001180  F9B7 0000		ldrsh r0, [r7]

#1414				EQ		20	{LNXT:407|-1|-1}
(*) INT
30001184  2814     		cmp r0, #20
30001186  BF18 2000		nemov r0, #0
3000118A  BF08 2001		eqmov r0, #1

#1415				JMPCN	$label79	{LNXT:407|408|414}
(-) BOOL
3000118E  2800     		cmp r0, #0
30001190  D00F     		beq #30 ; 0x300011B2


#1416		
#1417				(* THEN *)
#1418		
#1419					(* XPOSOUT := XPOS0 + 450; *)
#1420					LD		XPOS0	{LNXT:408|409|-1}
(*) UNDEF
30001194  F85F 7888		ldr r7, [pc, #-2184] ; 0x2
30001198  5FF0     		ldrsh r0, [r6, +r7]

#1421					ADD		450	{LNXT:408|409|-1}
(*) INT
3000119A  F44F 77E1		mov r7, #450 ; 450
3000119E  B23F     		sxth r7, r7
300011A0  19C0     		add r0, r0, r7

#1422					ST		XPOSOUT	{LNXT:408|409|-1}
(-) INT
300011A2  81B0     		strh r0, [r6, #12]

#1423		
#1424					(* YPOSOUT := YPOS0 + 1520; *)
#1425					LD		YPOS0	{LNXT:409|414|-1}
(*) UNDEF
300011A4  F9B6 0000		ldrsh r0, [r6]

#1426					ADD		1520	{LNXT:409|414|-1}
(*) INT
300011A8  F44F 67BE		mov r7, #1520 ; 1520
300011AC  B23F     		sxth r7, r7
300011AE  19C0     		add r0, r0, r7

#1427					ST		YPOSOUT	{LNXT:409|414|-1}
(-) INT
300011B0  81F0     		strh r0, [r6, #14]

#1428		
#1429		$label79:
#1430				(* END_IF *)
#1431		
#1432		
#1433				(* IF curSeq > 20) AND (curSeq < 100 *)
#1434				LD		curSeq	{LNXT:414|-1|-1}
(*) UNDEF
300011B2  F85F 7870		ldr r7, [pc, #-2160] ; 0x200002B6
300011B6  F9B7 0000		ldrsh r0, [r7]

#1435				LT		100	{LNXT:414|-1|-1}
(*) INT
300011BA  2864     		cmp r0, #100
300011BC  BFA8 2000		gemov r0, #0
300011C0  BFB8 2001		ltmov r0, #1

#1436				AND(		curSeq	{LNXT:414|-1|-1}
(*) BOOL
300011C4  B082     		sub sp, sp, #8
300011C6  F8CD 0000		str r0, [sp]
300011CA  F85F 7888		ldr r7, [pc, #-2184] ; 0x200002B6
300011CE  F9B7 0000		ldrsh r0, [r7]

#1437				GT		20	{LNXT:414|-1|-1}
(*) INT
300011D2  2814     		cmp r0, #20
300011D4  BFD8 2000		lemov r0, #0
300011D8  BFC8 2001		gtmov r0, #1

#1438				)	{LNXT:414|-1|-1}
(*) BOOL
300011DC  4607     		mov r7, r0
300011DE  F8DD 0000		ldr r0, [sp]
300011E2  B002     		add sp, sp, #8
300011E4  4038     		and r0, r0, r7

#1439				JMPCN	$label80	{LNXT:414|415|417}
(-) BOOL
300011E6  2800     		cmp r0, #0
300011E8  D00B     		beq #22 ; 0x30001202


#1440		
#1441				(* THEN *)
#1442		
#1443					(* LASERPWM := 0.8; *)
#1444					MOVE		0.8,LASERPWM	{LNXT:415|420|-1}
(*) BOOL
300011EC  F85F 08A8		ldr r0, [pc, #-2216] ; 0x3F4CCCCD = 0.800000
300011F0  EE00 0A10		fmsr s0, r0
300011F4  F85F 78DC		ldr r7, [pc, #-2268] ; 0x8
300011F8  19BF     		add r7, r7, r6
300011FA  ED87 0A00		fsts s0, [r7]

#1445					JMP		$label81	{LNXT:414|415|417}
(-) REAL
300011FE  E009     		b #18 ; 0x30001214


#1446		$label80:
#1447		
#1448				(* ELSE *)
#1449		
#1450					(* LASERPWM := 0.0; *)
#1451					MOVE		0.0,LASERPWM	{LNXT:417|420|-1}
(*) REAL
30001202  F85F 08F8		ldr r0, [pc, #-2296] ; 0x0 = 0.000000
30001206  EE00 0A10		fmsr s0, r0
3000120A  F85F 78F0		ldr r7, [pc, #-2288] ; 0x8
3000120E  19BF     		add r7, r7, r6
30001210  ED87 0A00		fsts s0, [r7]

#1452		
#1453		$label81:
#1454				(* END_IF *)
#1455		
#1456		
#1457				(* IF curSeq = 21 *)
#1458				LD		curSeq	{LNXT:420|-1|-1}
(*) UNDEF
30001214  F85F 78D4		ldr r7, [pc, #-2260] ; 0x200002B6
30001218  F9B7 0000		ldrsh r0, [r7]

#1459				EQ		21	{LNXT:420|-1|-1}
(*) INT
3000121C  2815     		cmp r0, #21
3000121E  BF18 2000		nemov r0, #0
30001222  BF08 2001		eqmov r0, #1

#1460				JMPCN	$label82	{LNXT:420|421|425}
(-) BOOL
30001226  2800     		cmp r0, #0
30001228  D00F     		beq #30 ; 0x3000124A


#1461		
#1462				(* THEN *)
#1463		
#1464					(* XPOSOUT := XPOS0 + 450; *)
#1465					LD		XPOS0	{LNXT:421|422|-1}
(*) UNDEF
3000122C  F85F 7920		ldr r7, [pc, #-2336] ; 0x2
30001230  5FF0     		ldrsh r0, [r6, +r7]

#1466					ADD		450	{LNXT:421|422|-1}
(*) INT
30001232  F44F 77E1		mov r7, #450 ; 450
30001236  B23F     		sxth r7, r7
30001238  19C0     		add r0, r0, r7

#1467					ST		XPOSOUT	{LNXT:421|422|-1}
(-) INT
3000123A  81B0     		strh r0, [r6, #12]

#1468		
#1469					(* YPOSOUT := YPOS0 + 450; *)
#1470					LD		YPOS0	{LNXT:422|425|-1}
(*) UNDEF
3000123C  F9B6 0000		ldrsh r0, [r6]

#1471					ADD		450	{LNXT:422|425|-1}
(*) INT
30001240  F44F 77E1		mov r7, #450 ; 450
30001244  B23F     		sxth r7, r7
30001246  19C0     		add r0, r0, r7

#1472					ST		YPOSOUT	{LNXT:422|425|-1}
(-) INT
30001248  81F0     		strh r0, [r6, #14]

#1473		
#1474		$label82:
#1475				(* END_IF *)
#1476		
#1477		
#1478				(* IF curSeq = 22 *)
#1479				LD		curSeq	{LNXT:425|-1|-1}
(*) UNDEF
3000124A  F85F 7908		ldr r7, [pc, #-2312] ; 0x200002B6
3000124E  F9B7 0000		ldrsh r0, [r7]

#1480				EQ		22	{LNXT:425|-1|-1}
(*) INT
30001252  2816     		cmp r0, #22
30001254  BF18 2000		nemov r0, #0
30001258  BF08 2001		eqmov r0, #1

#1481				JMPCN	$label83	{LNXT:425|426|431}
(-) BOOL
3000125C  2800     		cmp r0, #0
3000125E  D00F     		beq #30 ; 0x30001280


#1482		
#1483				(* THEN *)
#1484		
#1485					(* XPOSOUT := XPOS0 + 2505; *)
#1486					LD		XPOS0	{LNXT:426|427|-1}
(*) UNDEF
30001262  F85F 7954		ldr r7, [pc, #-2388] ; 0x2
30001266  5FF0     		ldrsh r0, [r6, +r7]

#1487					ADD		2505	{LNXT:426|427|-1}
(*) INT
30001268  F85F 7930		ldr r7, [pc, #-2352] ; 0x9C9
3000126C  463F     		mov r7, r7
3000126E  19C0     		add r0, r0, r7

#1488					ST		XPOSOUT	{LNXT:426|427|-1}
(-) INT
30001270  81B0     		strh r0, [r6, #12]

#1489		
#1490					(* YPOSOUT := YPOS0 + 1520; *)
#1491					LD		YPOS0	{LNXT:427|431|-1}
(*) UNDEF
30001272  F9B6 0000		ldrsh r0, [r6]

#1492					ADD		1520	{LNXT:427|431|-1}
(*) INT
30001276  F44F 67BE		mov r7, #1520 ; 1520
3000127A  B23F     		sxth r7, r7
3000127C  19C0     		add r0, r0, r7

#1493					ST		YPOSOUT	{LNXT:427|431|-1}
(-) INT
3000127E  81F0     		strh r0, [r6, #14]

#1494		
#1495		$label83:
#1496				(* END_IF *)
#1497		
#1498		
#1499				(* IF XPOSOUT = XPOSACT) AND (YPOSOUT = YPOSACT *)
#1500				LD		YPOSOUT	{LNXT:431|-1|-1}
(*) UNDEF
30001280  F85F 7960		ldr r7, [pc, #-2400] ; 0xE
30001284  5FF0     		ldrsh r0, [r6, +r7]

#1501				EQ		YPOSACT	{LNXT:431|-1|-1}
(*) INT
30001286  F85F 7970		ldr r7, [pc, #-2416] ; 0x6
3000128A  5FF7     		ldrsh r7, [r6, +r7]
3000128C  42B8     		cmp r0, r7
3000128E  BF18 2000		nemov r0, #0
30001292  BF08 2001		eqmov r0, #1

#1502				AND(		XPOSOUT	{LNXT:431|-1|-1}
(*) BOOL
30001296  B082     		sub sp, sp, #8
30001298  F8CD 0000		str r0, [sp]
3000129C  F85F 7980		ldr r7, [pc, #-2432] ; 0xC
300012A0  5FF0     		ldrsh r0, [r6, +r7]

#1503				EQ		XPOSACT	{LNXT:431|-1|-1}
(*) INT
300012A2  F85F 7990		ldr r7, [pc, #-2448] ; 0x4
300012A6  5FF7     		ldrsh r7, [r6, +r7]
300012A8  42B8     		cmp r0, r7
300012AA  BF18 2000		nemov r0, #0
300012AE  BF08 2001		eqmov r0, #1

#1504				)	{LNXT:431|-1|-1}
(*) BOOL
300012B2  4607     		mov r7, r0
300012B4  F8DD 0000		ldr r0, [sp]
300012B8  B002     		add sp, sp, #8
300012BA  4038     		and r0, r0, r7

#1505				JMPCN	$label84	{LNXT:431|432|437}
(-) BOOL
300012BC  2800     		cmp r0, #0
300012BE  D008     		beq #16 ; 0x300012D2


#1506		
#1507				(* THEN *)
#1508		
#1509					(* curSeq := curSeq + 1; *)
#1510					LD		curSeq	{LNXT:432|437|-1}
(*) UNDEF
300012C2  F85F 7980		ldr r7, [pc, #-2432] ; 0x200002B6
300012C6  F9B7 0000		ldrsh r0, [r7]

#1511					ADD		1	{LNXT:432|437|-1}
(-) INT
300012CA  1C40     		add r0, r0, #1

#1512					ST		curSeq	{LNXT:432|437|-1}
(*) INT
300012CC  F85F 798C		ldr r7, [pc, #-2444] ; 0x200002B6
300012D0  8038     		strh r0, [r7]

#1513		
#1514		$label84:
#1515				(* END_IF *)
#1516		
#1517		
#1518				(* IF curSeq > 22 *)
#1519				LD		curSeq	{LNXT:437|-1|-1}
(*) UNDEF
300012D2  F85F 7990		ldr r7, [pc, #-2448] ; 0x200002B6
300012D6  F9B7 0000		ldrsh r0, [r7]

#1520				GT		22	{LNXT:437|-1|-1}
(*) INT
300012DA  2816     		cmp r0, #22
300012DC  BFD8 2000		lemov r0, #0
300012E0  BFC8 2001		gtmov r0, #1

#1521				JMPCN	$label85	{LNXT:437|438|446}
(-) BOOL
300012E4  2800     		cmp r0, #0
300012E6  D00D     		beq #26 ; 0x30001304


#1522		
#1523				(* THEN *)
#1524		
#1525					(* curSeq := 100; *)
#1526					MOVE		100,curSeq	{LNXT:438|439|-1}
(*) BOOL
300012EA  2064     		mov r0, #100 ; 100
300012EC  F85F 79AC		ldr r7, [pc, #-2476] ; 0x200002B6
300012F0  8038     		strh r0, [r7]

#1527		
#1528					(* LASERPWM := 0.0; *)
#1529					MOVE		0.0,LASERPWM	{LNXT:439|446|-1}
(*) INT
300012F2  F85F 09E8		ldr r0, [pc, #-2536] ; 0x0 = 0.000000
300012F6  EE00 0A10		fmsr s0, r0
300012FA  F85F 79E0		ldr r7, [pc, #-2528] ; 0x8
300012FE  19BF     		add r7, r7, r6
30001300  ED87 0A00		fsts s0, [r7]

#1530		
#1531		$label85:
#1532				(* END_IF *)
#1533		
#1534		$label78:
#1535			(* END_IF *)
#1536		
#1537		
#1538			(* IF cutDigit = 8 *)
#1539			LD		cutDigit	{LNXT:446|-1|-1}
(*) UNDEF
30001304  F85F 79C8		ldr r7, [pc, #-2504] ; 0x200002B4
30001308  F9B7 0000		ldrsh r0, [r7]

#1540			EQ		8	{LNXT:446|-1|-1}
(*) INT
3000130C  2808     		cmp r0, #8
3000130E  BF18 2000		nemov r0, #0
30001312  BF08 2001		eqmov r0, #1

#1541			JMPCN	$label86	{LNXT:446|448|517}
(-) BOOL
30001316  2800     		cmp r0, #0
30001318  F000 8166		beq #716 ; 0x300015E8


#1542		
#1543			(* THEN *)
#1544		
#1545		
#1546				(* IF curSeq = 20 *)
#1547				LD		curSeq	{LNXT:448|-1|-1}
(*) UNDEF
3000131C  F85F 79DC		ldr r7, [pc, #-2524] ; 0x200002B6
30001320  F9B7 0000		ldrsh r0, [r7]

#1548				EQ		20	{LNXT:448|-1|-1}
(*) INT
30001324  2814     		cmp r0, #20
30001326  BF18 2000		nemov r0, #0
3000132A  BF08 2001		eqmov r0, #1

#1549				JMPCN	$label87	{LNXT:448|449|455}
(-) BOOL
3000132E  2800     		cmp r0, #0
30001330  D00F     		beq #30 ; 0x30001352


#1550		
#1551				(* THEN *)
#1552		
#1553					(* XPOSOUT := XPOS0 + 450; *)
#1554					LD		XPOS0	{LNXT:449|450|-1}
(*) UNDEF
30001334  F85F 7A28		ldr r7, [pc, #-2600] ; 0x2
30001338  5FF0     		ldrsh r0, [r6, +r7]

#1555					ADD		450	{LNXT:449|450|-1}
(*) INT
3000133A  F44F 77E1		mov r7, #450 ; 450
3000133E  B23F     		sxth r7, r7
30001340  19C0     		add r0, r0, r7

#1556					ST		XPOSOUT	{LNXT:449|450|-1}
(-) INT
30001342  81B0     		strh r0, [r6, #12]

#1557		
#1558					(* YPOSOUT := YPOS0 + 450; *)
#1559					LD		YPOS0	{LNXT:450|455|-1}
(*) UNDEF
30001344  F9B6 0000		ldrsh r0, [r6]

#1560					ADD		450	{LNXT:450|455|-1}
(*) INT
30001348  F44F 77E1		mov r7, #450 ; 450
3000134C  B23F     		sxth r7, r7
3000134E  19C0     		add r0, r0, r7

#1561					ST		YPOSOUT	{LNXT:450|455|-1}
(-) INT
30001350  81F0     		strh r0, [r6, #14]

#1562		
#1563		$label87:
#1564				(* END_IF *)
#1565		
#1566		
#1567				(* IF curSeq > 20) AND (curSeq < 100 *)
#1568				LD		curSeq	{LNXT:455|-1|-1}
(*) UNDEF
30001352  F85F 7A10		ldr r7, [pc, #-2576] ; 0x200002B6
30001356  F9B7 0000		ldrsh r0, [r7]

#1569				LT		100	{LNXT:455|-1|-1}
(*) INT
3000135A  2864     		cmp r0, #100
3000135C  BFA8 2000		gemov r0, #0
30001360  BFB8 2001		ltmov r0, #1

#1570				AND(		curSeq	{LNXT:455|-1|-1}
(*) BOOL
30001364  B082     		sub sp, sp, #8
30001366  F8CD 0000		str r0, [sp]
3000136A  F85F 7A28		ldr r7, [pc, #-2600] ; 0x200002B6
3000136E  F9B7 0000		ldrsh r0, [r7]

#1571				GT		20	{LNXT:455|-1|-1}
(*) INT
30001372  2814     		cmp r0, #20
30001374  BFD8 2000		lemov r0, #0
30001378  BFC8 2001		gtmov r0, #1

#1572				)	{LNXT:455|-1|-1}
(*) BOOL
3000137C  4607     		mov r7, r0
3000137E  F8DD 0000		ldr r0, [sp]
30001382  B002     		add sp, sp, #8
30001384  4038     		and r0, r0, r7

#1573				JMPCN	$label88	{LNXT:455|456|458}
(-) BOOL
30001386  2800     		cmp r0, #0
30001388  D00B     		beq #22 ; 0x300013A2


#1574		
#1575				(* THEN *)
#1576		
#1577					(* LASERPWM := 0.8; *)
#1578					MOVE		0.8,LASERPWM	{LNXT:456|461|-1}
(*) BOOL
3000138C  F85F 0A48		ldr r0, [pc, #-2632] ; 0x3F4CCCCD = 0.800000
30001390  EE00 0A10		fmsr s0, r0
30001394  F85F 7A7C		ldr r7, [pc, #-2684] ; 0x8
30001398  19BF     		add r7, r7, r6
3000139A  ED87 0A00		fsts s0, [r7]

#1579					JMP		$label89	{LNXT:455|456|458}
(-) REAL
3000139E  E009     		b #18 ; 0x300013B4


#1580		$label88:
#1581		
#1582				(* ELSE *)
#1583		
#1584					(* LASERPWM := 0.0; *)
#1585					MOVE		0.0,LASERPWM	{LNXT:458|461|-1}
(*) REAL
300013A2  F85F 0A98		ldr r0, [pc, #-2712] ; 0x0 = 0.000000
300013A6  EE00 0A10		fmsr s0, r0
300013AA  F85F 7A90		ldr r7, [pc, #-2704] ; 0x8
300013AE  19BF     		add r7, r7, r6
300013B0  ED87 0A00		fsts s0, [r7]

#1586		
#1587		$label89:
#1588				(* END_IF *)
#1589		
#1590		
#1591				(* IF curSeq = 21 *)
#1592				LD		curSeq	{LNXT:461|-1|-1}
(*) UNDEF
300013B4  F85F 7A74		ldr r7, [pc, #-2676] ; 0x200002B6
300013B8  F9B7 0000		ldrsh r0, [r7]

#1593				EQ		21	{LNXT:461|-1|-1}
(*) INT
300013BC  2815     		cmp r0, #21
300013BE  BF18 2000		nemov r0, #0
300013C2  BF08 2001		eqmov r0, #1

#1594				JMPCN	$label90	{LNXT:461|462|466}
(-) BOOL
300013C6  2800     		cmp r0, #0
300013C8  D00F     		beq #30 ; 0x300013EA


#1595		
#1596				(* THEN *)
#1597		
#1598					(* XPOSOUT := XPOS0 + 450; *)
#1599					LD		XPOS0	{LNXT:462|463|-1}
(*) UNDEF
300013CC  F85F 7AC0		ldr r7, [pc, #-2752] ; 0x2
300013D0  5FF0     		ldrsh r0, [r6, +r7]

#1600					ADD		450	{LNXT:462|463|-1}
(*) INT
300013D2  F44F 77E1		mov r7, #450 ; 450
300013D6  B23F     		sxth r7, r7
300013D8  19C0     		add r0, r0, r7

#1601					ST		XPOSOUT	{LNXT:462|463|-1}
(-) INT
300013DA  81B0     		strh r0, [r6, #12]

#1602		
#1603					(* YPOSOUT := YPOS0 + 1520; *)
#1604					LD		YPOS0	{LNXT:463|466|-1}
(*) UNDEF
300013DC  F9B6 0000		ldrsh r0, [r6]

#1605					ADD		1520	{LNXT:463|466|-1}
(*) INT
300013E0  F44F 67BE		mov r7, #1520 ; 1520
300013E4  B23F     		sxth r7, r7
300013E6  19C0     		add r0, r0, r7

#1606					ST		YPOSOUT	{LNXT:463|466|-1}
(-) INT
300013E8  81F0     		strh r0, [r6, #14]

#1607		
#1608		$label90:
#1609				(* END_IF *)
#1610		
#1611		
#1612				(* IF curSeq = 22 *)
#1613				LD		curSeq	{LNXT:466|-1|-1}
(*) UNDEF
300013EA  F85F 7AA8		ldr r7, [pc, #-2728] ; 0x200002B6
300013EE  F9B7 0000		ldrsh r0, [r7]

#1614				EQ		22	{LNXT:466|-1|-1}
(*) INT
300013F2  2816     		cmp r0, #22
300013F4  BF18 2000		nemov r0, #0
300013F8  BF08 2001		eqmov r0, #1

#1615				JMPCN	$label91	{LNXT:466|467|471}
(-) BOOL
300013FC  2800     		cmp r0, #0
300013FE  D00F     		beq #30 ; 0x30001420


#1616		
#1617				(* THEN *)
#1618		
#1619					(* XPOSOUT := XPOS0 + 1430; *)
#1620					LD		XPOS0	{LNXT:467|468|-1}
(*) UNDEF
30001402  F85F 7AF4		ldr r7, [pc, #-2804] ; 0x2
30001406  5FF0     		ldrsh r0, [r6, +r7]

#1621					ADD		1430	{LNXT:467|468|-1}
(*) INT
30001408  F8DF 7424		ldr r7, [pc, #+1060] ; 0x596
3000140C  463F     		mov r7, r7
3000140E  19C0     		add r0, r0, r7

#1622					ST		XPOSOUT	{LNXT:467|468|-1}
(-) INT
30001410  81B0     		strh r0, [r6, #12]

#1623		
#1624					(* YPOSOUT := YPOS0 + 1520; *)
#1625					LD		YPOS0	{LNXT:468|471|-1}
(*) UNDEF
30001412  F9B6 0000		ldrsh r0, [r6]

#1626					ADD		1520	{LNXT:468|471|-1}
(*) INT
30001416  F44F 67BE		mov r7, #1520 ; 1520
3000141A  B23F     		sxth r7, r7
3000141C  19C0     		add r0, r0, r7

#1627					ST		YPOSOUT	{LNXT:468|471|-1}
(-) INT
3000141E  81F0     		strh r0, [r6, #14]

#1628		
#1629		$label91:
#1630				(* END_IF *)
#1631		
#1632		
#1633				(* IF curSeq = 22 *)
#1634				LD		curSeq	{LNXT:471|-1|-1}
(*) UNDEF
30001420  F85F 7AE0		ldr r7, [pc, #-2784] ; 0x200002B6
30001424  F9B7 0000		ldrsh r0, [r7]

#1635				EQ		22	{LNXT:471|-1|-1}
(*) INT
30001428  2816     		cmp r0, #22
3000142A  BF18 2000		nemov r0, #0
3000142E  BF08 2001		eqmov r0, #1

#1636				JMPCN	$label92	{LNXT:471|472|476}
(-) BOOL
30001432  2800     		cmp r0, #0
30001434  D00F     		beq #30 ; 0x30001456


#1637		
#1638				(* THEN *)
#1639		
#1640					(* XPOSOUT := XPOS0 + 1430; *)
#1641					LD		XPOS0	{LNXT:472|473|-1}
(*) UNDEF
30001438  F85F 7B2C		ldr r7, [pc, #-2860] ; 0x2
3000143C  5FF0     		ldrsh r0, [r6, +r7]

#1642					ADD		1430	{LNXT:472|473|-1}
(*) INT
3000143E  F8DF 73F0		ldr r7, [pc, #+1008] ; 0x596
30001442  463F     		mov r7, r7
30001444  19C0     		add r0, r0, r7

#1643					ST		XPOSOUT	{LNXT:472|473|-1}
(-) INT
30001446  81B0     		strh r0, [r6, #12]

#1644		
#1645					(* YPOSOUT := YPOS0 + 550; *)
#1646					LD		YPOS0	{LNXT:473|476|-1}
(*) UNDEF
30001448  F9B6 0000		ldrsh r0, [r6]

#1647					ADD		550	{LNXT:473|476|-1}
(*) INT
3000144C  F85F 7B28		ldr r7, [pc, #-2856] ; 0x226
30001450  463F     		mov r7, r7
30001452  19C0     		add r0, r0, r7

#1648					ST		YPOSOUT	{LNXT:473|476|-1}
(-) INT
30001454  81F0     		strh r0, [r6, #14]

#1649		
#1650		$label92:
#1651				(* END_IF *)
#1652		
#1653		
#1654				(* IF curSeq = 23 *)
#1655				LD		curSeq	{LNXT:476|-1|-1}
(*) UNDEF
30001456  F85F 7B14		ldr r7, [pc, #-2836] ; 0x200002B6
3000145A  F9B7 0000		ldrsh r0, [r7]

#1656				EQ		23	{LNXT:476|-1|-1}
(*) INT
3000145E  2817     		cmp r0, #23
30001460  BF18 2000		nemov r0, #0
30001464  BF08 2001		eqmov r0, #1

#1657				JMPCN	$label93	{LNXT:476|477|481}
(-) BOOL
30001468  2800     		cmp r0, #0
3000146A  D00F     		beq #30 ; 0x3000148C


#1658		
#1659				(* THEN *)
#1660		
#1661					(* XPOSOUT := XPOS0 + 1530; *)
#1662					LD		XPOS0	{LNXT:477|478|-1}
(*) UNDEF
3000146E  F85F 7B60		ldr r7, [pc, #-2912] ; 0x2
30001472  5FF0     		ldrsh r0, [r6, +r7]

#1663					ADD		1530	{LNXT:477|478|-1}
(*) INT
30001474  F8DF 73BC		ldr r7, [pc, #+956] ; 0x5FA
30001478  463F     		mov r7, r7
3000147A  19C0     		add r0, r0, r7

#1664					ST		XPOSOUT	{LNXT:477|478|-1}
(-) INT
3000147C  81B0     		strh r0, [r6, #12]

#1665		
#1666					(* YPOSOUT := YPOS0 + 550; *)
#1667					LD		YPOS0	{LNXT:478|481|-1}
(*) UNDEF
3000147E  F9B6 0000		ldrsh r0, [r6]

#1668					ADD		550	{LNXT:478|481|-1}
(*) INT
30001482  F85F 7B5C		ldr r7, [pc, #-2908] ; 0x226
30001486  463F     		mov r7, r7
30001488  19C0     		add r0, r0, r7

#1669					ST		YPOSOUT	{LNXT:478|481|-1}
(-) INT
3000148A  81F0     		strh r0, [r6, #14]

#1670		
#1671		$label93:
#1672				(* END_IF *)
#1673		
#1674		
#1675				(* IF curSeq = 24 *)
#1676				LD		curSeq	{LNXT:481|-1|-1}
(*) UNDEF
3000148C  F85F 7B4C		ldr r7, [pc, #-2892] ; 0x200002B6
30001490  F9B7 0000		ldrsh r0, [r7]

#1677				EQ		24	{LNXT:481|-1|-1}
(*) INT
30001494  2818     		cmp r0, #24
30001496  BF18 2000		nemov r0, #0
3000149A  BF08 2001		eqmov r0, #1

#1678				JMPCN	$label94	{LNXT:481|482|486}
(-) BOOL
3000149E  2800     		cmp r0, #0
300014A0  D00F     		beq #30 ; 0x300014C2


#1679		
#1680				(* THEN *)
#1681		
#1682					(* XPOSOUT := XPOS0 + 1530; *)
#1683					LD		XPOS0	{LNXT:482|483|-1}
(*) UNDEF
300014A4  F85F 7B98		ldr r7, [pc, #-2968] ; 0x2
300014A8  5FF0     		ldrsh r0, [r6, +r7]

#1684					ADD		1530	{LNXT:482|483|-1}
(*) INT
300014AA  F8DF 7388		ldr r7, [pc, #+904] ; 0x5FA
300014AE  463F     		mov r7, r7
300014B0  19C0     		add r0, r0, r7

#1685					ST		XPOSOUT	{LNXT:482|483|-1}
(-) INT
300014B2  81B0     		strh r0, [r6, #12]

#1686		
#1687					(* YPOSOUT := YPOS0 + 1520; *)
#1688					LD		YPOS0	{LNXT:483|486|-1}
(*) UNDEF
300014B4  F9B6 0000		ldrsh r0, [r6]

#1689					ADD		1520	{LNXT:483|486|-1}
(*) INT
300014B8  F44F 67BE		mov r7, #1520 ; 1520
300014BC  B23F     		sxth r7, r7
300014BE  19C0     		add r0, r0, r7

#1690					ST		YPOSOUT	{LNXT:483|486|-1}
(-) INT
300014C0  81F0     		strh r0, [r6, #14]

#1691		
#1692		$label94:
#1693				(* END_IF *)
#1694		
#1695		
#1696				(* IF curSeq = 25 *)
#1697				LD		curSeq	{LNXT:486|-1|-1}
(*) UNDEF
300014C2  F85F 7B80		ldr r7, [pc, #-2944] ; 0x200002B6
300014C6  F9B7 0000		ldrsh r0, [r7]

#1698				EQ		25	{LNXT:486|-1|-1}
(*) INT
300014CA  2819     		cmp r0, #25
300014CC  BF18 2000		nemov r0, #0
300014D0  BF08 2001		eqmov r0, #1

#1699				JMPCN	$label95	{LNXT:486|487|491}
(-) BOOL
300014D4  2800     		cmp r0, #0
300014D6  D00F     		beq #30 ; 0x300014F8


#1700		
#1701				(* THEN *)
#1702		
#1703					(* XPOSOUT := XPOS0 + 2505; *)
#1704					LD		XPOS0	{LNXT:487|488|-1}
(*) UNDEF
300014DA  F85F 7BCC		ldr r7, [pc, #-3020] ; 0x2
300014DE  5FF0     		ldrsh r0, [r6, +r7]

#1705					ADD		2505	{LNXT:487|488|-1}
(*) INT
300014E0  F85F 7BA8		ldr r7, [pc, #-2984] ; 0x9C9
300014E4  463F     		mov r7, r7
300014E6  19C0     		add r0, r0, r7

#1706					ST		XPOSOUT	{LNXT:487|488|-1}
(-) INT
300014E8  81B0     		strh r0, [r6, #12]

#1707		
#1708					(* YPOSOUT := YPOS0 + 1520; *)
#1709					LD		YPOS0	{LNXT:488|491|-1}
(*) UNDEF
300014EA  F9B6 0000		ldrsh r0, [r6]

#1710					ADD		1520	{LNXT:488|491|-1}
(*) INT
300014EE  F44F 67BE		mov r7, #1520 ; 1520
300014F2  B23F     		sxth r7, r7
300014F4  19C0     		add r0, r0, r7

#1711					ST		YPOSOUT	{LNXT:488|491|-1}
(-) INT
300014F6  81F0     		strh r0, [r6, #14]

#1712		
#1713		$label95:
#1714				(* END_IF *)
#1715		
#1716		
#1717				(* IF curSeq = 26 *)
#1718				LD		curSeq	{LNXT:491|-1|-1}
(*) UNDEF
300014F8  F85F 7BB8		ldr r7, [pc, #-3000] ; 0x200002B6
300014FC  F9B7 0000		ldrsh r0, [r7]

#1719				EQ		26	{LNXT:491|-1|-1}
(*) INT
30001500  281A     		cmp r0, #26
30001502  BF18 2000		nemov r0, #0
30001506  BF08 2001		eqmov r0, #1

#1720				JMPCN	$label96	{LNXT:491|492|496}
(-) BOOL
3000150A  2800     		cmp r0, #0
3000150C  D00F     		beq #30 ; 0x3000152E


#1721		
#1722				(* THEN *)
#1723		
#1724					(* XPOSOUT := XPOS0 + 2505; *)
#1725					LD		XPOS0	{LNXT:492|493|-1}
(*) UNDEF
30001510  F85F 7C04		ldr r7, [pc, #-3076] ; 0x2
30001514  5FF0     		ldrsh r0, [r6, +r7]

#1726					ADD		2505	{LNXT:492|493|-1}
(*) INT
30001516  F85F 7BDC		ldr r7, [pc, #-3036] ; 0x9C9
3000151A  463F     		mov r7, r7
3000151C  19C0     		add r0, r0, r7

#1727					ST		XPOSOUT	{LNXT:492|493|-1}
(-) INT
3000151E  81B0     		strh r0, [r6, #12]

#1728		
#1729					(* YPOSOUT := YPOS0 + 450; *)
#1730					LD		YPOS0	{LNXT:493|496|-1}
(*) UNDEF
30001520  F9B6 0000		ldrsh r0, [r6]

#1731					ADD		450	{LNXT:493|496|-1}
(*) INT
30001524  F44F 77E1		mov r7, #450 ; 450
30001528  B23F     		sxth r7, r7
3000152A  19C0     		add r0, r0, r7

#1732					ST		YPOSOUT	{LNXT:493|496|-1}
(-) INT
3000152C  81F0     		strh r0, [r6, #14]

#1733		
#1734		$label96:
#1735				(* END_IF *)
#1736		
#1737		
#1738				(* IF curSeq = 27 *)
#1739				LD		curSeq	{LNXT:496|-1|-1}
(*) UNDEF
3000152E  F85F 7BEC		ldr r7, [pc, #-3052] ; 0x200002B6
30001532  F9B7 0000		ldrsh r0, [r7]

#1740				EQ		27	{LNXT:496|-1|-1}
(*) INT
30001536  281B     		cmp r0, #27
30001538  BF18 2000		nemov r0, #0
3000153C  BF08 2001		eqmov r0, #1

#1741				JMPCN	$label97	{LNXT:496|497|502}
(-) BOOL
30001540  2800     		cmp r0, #0
30001542  D00F     		beq #30 ; 0x30001564


#1742		
#1743				(* THEN *)
#1744		
#1745					(* XPOSOUT := XPOS0 + 550; *)
#1746					LD		XPOS0	{LNXT:497|498|-1}
(*) UNDEF
30001546  F85F 7C38		ldr r7, [pc, #-3128] ; 0x2
3000154A  5FF0     		ldrsh r0, [r6, +r7]

#1747					ADD		550	{LNXT:497|498|-1}
(*) INT
3000154C  F85F 7C28		ldr r7, [pc, #-3112] ; 0x226
30001550  463F     		mov r7, r7
30001552  19C0     		add r0, r0, r7

#1748					ST		XPOSOUT	{LNXT:497|498|-1}
(-) INT
30001554  81B0     		strh r0, [r6, #12]

#1749		
#1750					(* YPOSOUT := YPOS0 + 450; *)
#1751					LD		YPOS0	{LNXT:498|502|-1}
(*) UNDEF
30001556  F9B6 0000		ldrsh r0, [r6]

#1752					ADD		450	{LNXT:498|502|-1}
(*) INT
3000155A  F44F 77E1		mov r7, #450 ; 450
3000155E  B23F     		sxth r7, r7
30001560  19C0     		add r0, r0, r7

#1753					ST		YPOSOUT	{LNXT:498|502|-1}
(-) INT
30001562  81F0     		strh r0, [r6, #14]

#1754		
#1755		$label97:
#1756				(* END_IF *)
#1757		
#1758		
#1759				(* IF XPOSOUT = XPOSACT) AND (YPOSOUT = YPOSACT *)
#1760				LD		YPOSOUT	{LNXT:502|-1|-1}
(*) UNDEF
30001564  F85F 7C44		ldr r7, [pc, #-3140] ; 0xE
30001568  5FF0     		ldrsh r0, [r6, +r7]

#1761				EQ		YPOSACT	{LNXT:502|-1|-1}
(*) INT
3000156A  F85F 7C54		ldr r7, [pc, #-3156] ; 0x6
3000156E  5FF7     		ldrsh r7, [r6, +r7]
30001570  42B8     		cmp r0, r7
30001572  BF18 2000		nemov r0, #0
30001576  BF08 2001		eqmov r0, #1

#1762				AND(		XPOSOUT	{LNXT:502|-1|-1}
(*) BOOL
3000157A  B082     		sub sp, sp, #8
3000157C  F8CD 0000		str r0, [sp]
30001580  F85F 7C64		ldr r7, [pc, #-3172] ; 0xC
30001584  5FF0     		ldrsh r0, [r6, +r7]

#1763				EQ		XPOSACT	{LNXT:502|-1|-1}
(*) INT
30001586  F85F 7C74		ldr r7, [pc, #-3188] ; 0x4
3000158A  5FF7     		ldrsh r7, [r6, +r7]
3000158C  42B8     		cmp r0, r7
3000158E  BF18 2000		nemov r0, #0
30001592  BF08 2001		eqmov r0, #1

#1764				)	{LNXT:502|-1|-1}
(*) BOOL
30001596  4607     		mov r7, r0
30001598  F8DD 0000		ldr r0, [sp]
3000159C  B002     		add sp, sp, #8
3000159E  4038     		and r0, r0, r7

#1765				JMPCN	$label98	{LNXT:502|503|508}
(-) BOOL
300015A0  2800     		cmp r0, #0
300015A2  D008     		beq #16 ; 0x300015B6


#1766		
#1767				(* THEN *)
#1768		
#1769					(* curSeq := curSeq + 1; *)
#1770					LD		curSeq	{LNXT:503|508|-1}
(*) UNDEF
300015A6  F85F 7C64		ldr r7, [pc, #-3172] ; 0x200002B6
300015AA  F9B7 0000		ldrsh r0, [r7]

#1771					ADD		1	{LNXT:503|508|-1}
(-) INT
300015AE  1C40     		add r0, r0, #1

#1772					ST		curSeq	{LNXT:503|508|-1}
(*) INT
300015B0  F85F 7C70		ldr r7, [pc, #-3184] ; 0x200002B6
300015B4  8038     		strh r0, [r7]

#1773		
#1774		$label98:
#1775				(* END_IF *)
#1776		
#1777		
#1778				(* IF curSeq > 27 *)
#1779				LD		curSeq	{LNXT:508|-1|-1}
(*) UNDEF
300015B6  F85F 7C74		ldr r7, [pc, #-3188] ; 0x200002B6
300015BA  F9B7 0000		ldrsh r0, [r7]

#1780				GT		27	{LNXT:508|-1|-1}
(*) INT
300015BE  281B     		cmp r0, #27
300015C0  BFD8 2000		lemov r0, #0
300015C4  BFC8 2001		gtmov r0, #1

#1781				JMPCN	$label99	{LNXT:508|509|517}
(-) BOOL
300015C8  2800     		cmp r0, #0
300015CA  D00D     		beq #26 ; 0x300015E8


#1782		
#1783				(* THEN *)
#1784		
#1785					(* curSeq := 100; *)
#1786					MOVE		100,curSeq	{LNXT:509|510|-1}
(*) BOOL
300015CE  2064     		mov r0, #100 ; 100
300015D0  F85F 7C90		ldr r7, [pc, #-3216] ; 0x200002B6
300015D4  8038     		strh r0, [r7]

#1787		
#1788					(* LASERPWM := 0.0; *)
#1789					MOVE		0.0,LASERPWM	{LNXT:510|517|-1}
(*) INT
300015D6  F85F 0CCC		ldr r0, [pc, #-3276] ; 0x0 = 0.000000
300015DA  EE00 0A10		fmsr s0, r0
300015DE  F85F 7CC4		ldr r7, [pc, #-3268] ; 0x8
300015E2  19BF     		add r7, r7, r6
300015E4  ED87 0A00		fsts s0, [r7]

#1790		
#1791		$label99:
#1792				(* END_IF *)
#1793		
#1794		$label86:
#1795			(* END_IF *)
#1796		
#1797		
#1798			(* IF cutDigit = 9 *)
#1799			LD		cutDigit	{LNXT:517|-1|-1}
(*) UNDEF
300015E8  F85F 7CAC		ldr r7, [pc, #-3244] ; 0x200002B4
300015EC  F9B7 0000		ldrsh r0, [r7]

#1800			EQ		9	{LNXT:517|-1|-1}
(*) INT
300015F0  2809     		cmp r0, #9
300015F2  BF18 2000		nemov r0, #0
300015F6  BF08 2001		eqmov r0, #1

#1801			JMPCN	$label100	{LNXT:517|519|-1}
(-) BOOL
300015FA  2800     		cmp r0, #0
300015FC  F000 8115		beq #554 ; 0x3000182A


#1802		
#1803			(* THEN *)
#1804		
#1805		
#1806				(* IF curSeq = 20 *)
#1807				LD		curSeq	{LNXT:519|-1|-1}
(*) UNDEF
30001600  F85F 7CC0		ldr r7, [pc, #-3264] ; 0x200002B6
30001604  F9B7 0000		ldrsh r0, [r7]

#1808				EQ		20	{LNXT:519|-1|-1}
(*) INT
30001608  2814     		cmp r0, #20
3000160A  BF18 2000		nemov r0, #0
3000160E  BF08 2001		eqmov r0, #1

#1809				JMPCN	$label101	{LNXT:519|520|526}
(-) BOOL
30001612  2800     		cmp r0, #0
30001614  D00F     		beq #30 ; 0x30001636


#1810		
#1811				(* THEN *)
#1812		
#1813					(* XPOSOUT := XPOS0 + 1475; *)
#1814					LD		XPOS0	{LNXT:520|521|-1}
(*) UNDEF
30001618  F85F 7D0C		ldr r7, [pc, #-3340] ; 0x2
3000161C  5FF0     		ldrsh r0, [r6, +r7]

#1815					ADD		1475	{LNXT:520|521|-1}
(*) INT
3000161E  F85F 7CEC		ldr r7, [pc, #-3308] ; 0x5C3
30001622  463F     		mov r7, r7
30001624  19C0     		add r0, r0, r7

#1816					ST		XPOSOUT	{LNXT:520|521|-1}
(-) INT
30001626  81B0     		strh r0, [r6, #12]

#1817		
#1818					(* YPOSOUT := YPOS0 + 550; *)
#1819					LD		YPOS0	{LNXT:521|526|-1}
(*) UNDEF
30001628  F9B6 0000		ldrsh r0, [r6]

#1820					ADD		550	{LNXT:521|526|-1}
(*) INT
3000162C  F85F 7D08		ldr r7, [pc, #-3336] ; 0x226
30001630  463F     		mov r7, r7
30001632  19C0     		add r0, r0, r7

#1821					ST		YPOSOUT	{LNXT:521|526|-1}
(-) INT
30001634  81F0     		strh r0, [r6, #14]

#1822		
#1823		$label101:
#1824				(* END_IF *)
#1825		
#1826		
#1827				(* IF curSeq > 20) AND (curSeq < 100 *)
#1828				LD		curSeq	{LNXT:526|-1|-1}
(*) UNDEF
30001636  F85F 7CF4		ldr r7, [pc, #-3316] ; 0x200002B6
3000163A  F9B7 0000		ldrsh r0, [r7]

#1829				LT		100	{LNXT:526|-1|-1}
(*) INT
3000163E  2864     		cmp r0, #100
30001640  BFA8 2000		gemov r0, #0
30001644  BFB8 2001		ltmov r0, #1

#1830				AND(		curSeq	{LNXT:526|-1|-1}
(*) BOOL
30001648  B082     		sub sp, sp, #8
3000164A  F8CD 0000		str r0, [sp]
3000164E  F85F 7D0C		ldr r7, [pc, #-3340] ; 0x200002B6
30001652  F9B7 0000		ldrsh r0, [r7]

#1831				GT		20	{LNXT:526|-1|-1}
(*) INT
30001656  2814     		cmp r0, #20
30001658  BFD8 2000		lemov r0, #0
3000165C  BFC8 2001		gtmov r0, #1

#1832				)	{LNXT:526|-1|-1}
(*) BOOL
30001660  4607     		mov r7, r0
30001662  F8DD 0000		ldr r0, [sp]
30001666  B002     		add sp, sp, #8
30001668  4038     		and r0, r0, r7

#1833				JMPCN	$label102	{LNXT:526|527|529}
(-) BOOL
3000166A  2800     		cmp r0, #0
3000166C  D00B     		beq #22 ; 0x30001686


#1834		
#1835				(* THEN *)
#1836		
#1837					(* LASERPWM := 0.8; *)
#1838					MOVE		0.8,LASERPWM	{LNXT:527|532|-1}
(*) BOOL
30001670  F85F 0D2C		ldr r0, [pc, #-3372] ; 0x3F4CCCCD = 0.800000
30001674  EE00 0A10		fmsr s0, r0
30001678  F85F 7D60		ldr r7, [pc, #-3424] ; 0x8
3000167C  19BF     		add r7, r7, r6
3000167E  ED87 0A00		fsts s0, [r7]

#1839					JMP		$label103	{LNXT:526|527|529}
(-) REAL
30001682  E009     		b #18 ; 0x30001698


#1840		$label102:
#1841		
#1842				(* ELSE *)
#1843		
#1844					(* LASERPWM := 0.0; *)
#1845					MOVE		0.0,LASERPWM	{LNXT:529|532|-1}
(*) REAL
30001686  F85F 0D7C		ldr r0, [pc, #-3452] ; 0x0 = 0.000000
3000168A  EE00 0A10		fmsr s0, r0
3000168E  F85F 7D74		ldr r7, [pc, #-3444] ; 0x8
30001692  19BF     		add r7, r7, r6
30001694  ED87 0A00		fsts s0, [r7]

#1846		
#1847		$label103:
#1848				(* END_IF *)
#1849		
#1850		
#1851				(* IF curSeq = 21 *)
#1852				LD		curSeq	{LNXT:532|-1|-1}
(*) UNDEF
30001698  F85F 7D58		ldr r7, [pc, #-3416] ; 0x200002B6
3000169C  F9B7 0000		ldrsh r0, [r7]

#1853				EQ		21	{LNXT:532|-1|-1}
(*) INT
300016A0  2815     		cmp r0, #21
300016A2  BF18 2000		nemov r0, #0
300016A6  BF08 2001		eqmov r0, #1

#1854				JMPCN	$label104	{LNXT:532|533|537}
(-) BOOL
300016AA  2800     		cmp r0, #0
300016AC  D00F     		beq #30 ; 0x300016CE


#1855		
#1856				(* THEN *)
#1857		
#1858					(* XPOSOUT := XPOS0 + 1475; *)
#1859					LD		XPOS0	{LNXT:533|534|-1}
(*) UNDEF
300016B0  F85F 7DA4		ldr r7, [pc, #-3492] ; 0x2
300016B4  5FF0     		ldrsh r0, [r6, +r7]

#1860					ADD		1475	{LNXT:533|534|-1}
(*) INT
300016B6  F85F 7D84		ldr r7, [pc, #-3460] ; 0x5C3
300016BA  463F     		mov r7, r7
300016BC  19C0     		add r0, r0, r7

#1861					ST		XPOSOUT	{LNXT:533|534|-1}
(-) INT
300016BE  81B0     		strh r0, [r6, #12]

#1862		
#1863					(* YPOSOUT := YPOS0 + 1520; *)
#1864					LD		YPOS0	{LNXT:534|537|-1}
(*) UNDEF
300016C0  F9B6 0000		ldrsh r0, [r6]

#1865					ADD		1520	{LNXT:534|537|-1}
(*) INT
300016C4  F44F 67BE		mov r7, #1520 ; 1520
300016C8  B23F     		sxth r7, r7
300016CA  19C0     		add r0, r0, r7

#1866					ST		YPOSOUT	{LNXT:534|537|-1}
(-) INT
300016CC  81F0     		strh r0, [r6, #14]

#1867		
#1868		$label104:
#1869				(* END_IF *)
#1870		
#1871		
#1872				(* IF curSeq = 22 *)
#1873				LD		curSeq	{LNXT:537|-1|-1}
(*) UNDEF
300016CE  F85F 7D8C		ldr r7, [pc, #-3468] ; 0x200002B6
300016D2  F9B7 0000		ldrsh r0, [r7]

#1874				EQ		22	{LNXT:537|-1|-1}
(*) INT
300016D6  2816     		cmp r0, #22
300016D8  BF18 2000		nemov r0, #0
300016DC  BF08 2001		eqmov r0, #1

#1875				JMPCN	$label105	{LNXT:537|538|542}
(-) BOOL
300016E0  2800     		cmp r0, #0
300016E2  D00F     		beq #30 ; 0x30001704


#1876		
#1877				(* THEN *)
#1878		
#1879					(* XPOSOUT := XPOS0 + 450; *)
#1880					LD		XPOS0	{LNXT:538|539|-1}
(*) UNDEF
300016E6  F85F 7DD8		ldr r7, [pc, #-3544] ; 0x2
300016EA  5FF0     		ldrsh r0, [r6, +r7]

#1881					ADD		450	{LNXT:538|539|-1}
(*) INT
300016EC  F44F 77E1		mov r7, #450 ; 450
300016F0  B23F     		sxth r7, r7
300016F2  19C0     		add r0, r0, r7

#1882					ST		XPOSOUT	{LNXT:538|539|-1}
(-) INT
300016F4  81B0     		strh r0, [r6, #12]

#1883		
#1884					(* YPOSOUT := YPOS0 + 1520; *)
#1885					LD		YPOS0	{LNXT:539|542|-1}
(*) UNDEF
300016F6  F9B6 0000		ldrsh r0, [r6]

#1886					ADD		1520	{LNXT:539|542|-1}
(*) INT
300016FA  F44F 67BE		mov r7, #1520 ; 1520
300016FE  B23F     		sxth r7, r7
30001700  19C0     		add r0, r0, r7

#1887					ST		YPOSOUT	{LNXT:539|542|-1}
(-) INT
30001702  81F0     		strh r0, [r6, #14]

#1888		
#1889		$label105:
#1890				(* END_IF *)
#1891		
#1892		
#1893				(* IF curSeq = 22 *)
#1894				LD		curSeq	{LNXT:542|-1|-1}
(*) UNDEF
30001704  F85F 7DC4		ldr r7, [pc, #-3524] ; 0x200002B6
30001708  F9B7 0000		ldrsh r0, [r7]

#1895				EQ		22	{LNXT:542|-1|-1}
(*) INT
3000170C  2816     		cmp r0, #22
3000170E  BF18 2000		nemov r0, #0
30001712  BF08 2001		eqmov r0, #1

#1896				JMPCN	$label106	{LNXT:542|543|547}
(-) BOOL
30001716  2800     		cmp r0, #0
30001718  D00F     		beq #30 ; 0x3000173A


#1897		
#1898				(* THEN *)
#1899		
#1900					(* XPOSOUT := XPOS0 + 450; *)
#1901					LD		XPOS0	{LNXT:543|544|-1}
(*) UNDEF
3000171C  F85F 7E10		ldr r7, [pc, #-3600] ; 0x2
30001720  5FF0     		ldrsh r0, [r6, +r7]

#1902					ADD		450	{LNXT:543|544|-1}
(*) INT
30001722  F44F 77E1		mov r7, #450 ; 450
30001726  B23F     		sxth r7, r7
30001728  19C0     		add r0, r0, r7

#1903					ST		XPOSOUT	{LNXT:543|544|-1}
(-) INT
3000172A  81B0     		strh r0, [r6, #12]

#1904		
#1905					(* YPOSOUT := YPOS0 + 450; *)
#1906					LD		YPOS0	{LNXT:544|547|-1}
(*) UNDEF
3000172C  F9B6 0000		ldrsh r0, [r6]

#1907					ADD		450	{LNXT:544|547|-1}
(*) INT
30001730  F44F 77E1		mov r7, #450 ; 450
30001734  B23F     		sxth r7, r7
30001736  19C0     		add r0, r0, r7

#1908					ST		YPOSOUT	{LNXT:544|547|-1}
(-) INT
30001738  81F0     		strh r0, [r6, #14]

#1909		
#1910		$label106:
#1911				(* END_IF *)
#1912		
#1913		
#1914				(* IF curSeq = 23 *)
#1915				LD		curSeq	{LNXT:547|-1|-1}
(*) UNDEF
3000173A  F85F 7DF8		ldr r7, [pc, #-3576] ; 0x200002B6
3000173E  F9B7 0000		ldrsh r0, [r7]

#1916				EQ		23	{LNXT:547|-1|-1}
(*) INT
30001742  2817     		cmp r0, #23
30001744  BF18 2000		nemov r0, #0
30001748  BF08 2001		eqmov r0, #1

#1917				JMPCN	$label107	{LNXT:547|548|552}
(-) BOOL
3000174C  2800     		cmp r0, #0
3000174E  D00F     		beq #30 ; 0x30001770


#1918		
#1919				(* THEN *)
#1920		
#1921					(* XPOSOUT := XPOS0 + 2505; *)
#1922					LD		XPOS0	{LNXT:548|549|-1}
(*) UNDEF
30001752  F85F 7E44		ldr r7, [pc, #-3652] ; 0x2
30001756  5FF0     		ldrsh r0, [r6, +r7]

#1923					ADD		2505	{LNXT:548|549|-1}
(*) INT
30001758  F85F 7E20		ldr r7, [pc, #-3616] ; 0x9C9
3000175C  463F     		mov r7, r7
3000175E  19C0     		add r0, r0, r7

#1924					ST		XPOSOUT	{LNXT:548|549|-1}
(-) INT
30001760  81B0     		strh r0, [r6, #12]

#1925		
#1926					(* YPOSOUT := YPOS0 + 450; *)
#1927					LD		YPOS0	{LNXT:549|552|-1}
(*) UNDEF
30001762  F9B6 0000		ldrsh r0, [r6]

#1928					ADD		450	{LNXT:549|552|-1}
(*) INT
30001766  F44F 77E1		mov r7, #450 ; 450
3000176A  B23F     		sxth r7, r7
3000176C  19C0     		add r0, r0, r7

#1929					ST		YPOSOUT	{LNXT:549|552|-1}
(-) INT
3000176E  81F0     		strh r0, [r6, #14]

#1930		
#1931		$label107:
#1932				(* END_IF *)
#1933		
#1934		
#1935				(* IF curSeq = 24 *)
#1936				LD		curSeq	{LNXT:552|-1|-1}
(*) UNDEF
30001770  F85F 7E30		ldr r7, [pc, #-3632] ; 0x200002B6
30001774  F9B7 0000		ldrsh r0, [r7]

#1937				EQ		24	{LNXT:552|-1|-1}
(*) INT
30001778  2818     		cmp r0, #24
3000177A  BF18 2000		nemov r0, #0
3000177E  BF08 2001		eqmov r0, #1

#1938				JMPCN	$label108	{LNXT:552|553|558}
(-) BOOL
30001782  2800     		cmp r0, #0
30001784  D00F     		beq #30 ; 0x300017A6


#1939		
#1940				(* THEN *)
#1941		
#1942					(* XPOSOUT := XPOS0 + 2505; *)
#1943					LD		XPOS0	{LNXT:553|554|-1}
(*) UNDEF
30001788  F85F 7E7C		ldr r7, [pc, #-3708] ; 0x2
3000178C  5FF0     		ldrsh r0, [r6, +r7]

#1944					ADD		2505	{LNXT:553|554|-1}
(*) INT
3000178E  F85F 7E54		ldr r7, [pc, #-3668] ; 0x9C9
30001792  463F     		mov r7, r7
30001794  19C0     		add r0, r0, r7

#1945					ST		XPOSOUT	{LNXT:553|554|-1}
(-) INT
30001796  81B0     		strh r0, [r6, #12]

#1946		
#1947					(* YPOSOUT := YPOS0 + 1520; *)
#1948					LD		YPOS0	{LNXT:554|558|-1}
(*) UNDEF
30001798  F9B6 0000		ldrsh r0, [r6]

#1949					ADD		1520	{LNXT:554|558|-1}
(*) INT
3000179C  F44F 67BE		mov r7, #1520 ; 1520
300017A0  B23F     		sxth r7, r7
300017A2  19C0     		add r0, r0, r7

#1950					ST		YPOSOUT	{LNXT:554|558|-1}
(-) INT
300017A4  81F0     		strh r0, [r6, #14]

#1951		
#1952		$label108:
#1953				(* END_IF *)
#1954		
#1955		
#1956				(* IF XPOSOUT = XPOSACT) AND (YPOSOUT = YPOSACT *)
#1957				LD		YPOSOUT	{LNXT:558|-1|-1}
(*) UNDEF
300017A6  F85F 7E84		ldr r7, [pc, #-3716] ; 0xE
300017AA  5FF0     		ldrsh r0, [r6, +r7]

#1958				EQ		YPOSACT	{LNXT:558|-1|-1}
(*) INT
300017AC  F85F 7E98		ldr r7, [pc, #-3736] ; 0x6
300017B0  5FF7     		ldrsh r7, [r6, +r7]
300017B2  42B8     		cmp r0, r7
300017B4  BF18 2000		nemov r0, #0
300017B8  BF08 2001		eqmov r0, #1

#1959				AND(		XPOSOUT	{LNXT:558|-1|-1}
(*) BOOL
300017BC  B082     		sub sp, sp, #8
300017BE  F8CD 0000		str r0, [sp]
300017C2  F85F 7EA4		ldr r7, [pc, #-3748] ; 0xC
300017C6  5FF0     		ldrsh r0, [r6, +r7]

#1960				EQ		XPOSACT	{LNXT:558|-1|-1}
(*) INT
300017C8  F85F 7EB8		ldr r7, [pc, #-3768] ; 0x4
300017CC  5FF7     		ldrsh r7, [r6, +r7]
300017CE  42B8     		cmp r0, r7
300017D0  BF18 2000		nemov r0, #0
300017D4  BF08 2001		eqmov r0, #1

#1961				)	{LNXT:558|-1|-1}
(*) BOOL
300017D8  4607     		mov r7, r0
300017DA  F8DD 0000		ldr r0, [sp]
300017DE  B002     		add sp, sp, #8
300017E0  4038     		and r0, r0, r7

#1962				JMPCN	$label109	{LNXT:558|559|564}
(-) BOOL
300017E2  2800     		cmp r0, #0
300017E4  D008     		beq #16 ; 0x300017F8


#1963		
#1964				(* THEN *)
#1965		
#1966					(* curSeq := curSeq + 1; *)
#1967					LD		curSeq	{LNXT:559|564|-1}
(*) UNDEF
300017E8  F85F 7EA8		ldr r7, [pc, #-3752] ; 0x200002B6
300017EC  F9B7 0000		ldrsh r0, [r7]

#1968					ADD		1	{LNXT:559|564|-1}
(-) INT
300017F0  1C40     		add r0, r0, #1

#1969					ST		curSeq	{LNXT:559|564|-1}
(*) INT
300017F2  F85F 7EB0		ldr r7, [pc, #-3760] ; 0x200002B6
300017F6  8038     		strh r0, [r7]

#1970		
#1971		$label109:
#1972				(* END_IF *)
#1973		
#1974		
#1975				(* IF curSeq > 24 *)
#1976				LD		curSeq	{LNXT:564|-1|-1}
(*) UNDEF
300017F8  F85F 7EB8		ldr r7, [pc, #-3768] ; 0x200002B6
300017FC  F9B7 0000		ldrsh r0, [r7]

#1977				GT		24	{LNXT:564|-1|-1}
(*) INT
30001800  2818     		cmp r0, #24
30001802  BFD8 2000		lemov r0, #0
30001806  BFC8 2001		gtmov r0, #1

#1978				JMPCN	$label110	{LNXT:564|565|-1}
(-) BOOL
3000180A  2800     		cmp r0, #0
3000180C  D00D     		beq #26 ; 0x3000182A


#1979		
#1980				(* THEN *)
#1981		
#1982					(* curSeq := 100; *)
#1983					MOVE		100,curSeq	{LNXT:565|566|-1}
(*) BOOL
30001810  2064     		mov r0, #100 ; 100
30001812  F85F 7ED0		ldr r7, [pc, #-3792] ; 0x200002B6
30001816  8038     		strh r0, [r7]

#1984		
#1985					(* LASERPWM := 0.0; *)
#1986					MOVE		0.0,LASERPWM	{LNXT:566|-1|-1}
(*) INT
30001818  F85F 0F10		ldr r0, [pc, #-3856] ; 0x0 = 0.000000
3000181C  EE00 0A10		fmsr s0, r0
30001820  F85F 7F08		ldr r7, [pc, #-3848] ; 0x8
30001824  19BF     		add r7, r7, r6
30001826  ED87 0A00		fsts s0, [r7]

3000182A  E8BD 4040		ldmia sp!, { r6, lr }

3000182E  4770     		bx lr

30001830  00000596		; 0x00000596
30001834  000005FA		; 0x000005FA


Frame allocation:

	0000       : VAR YPOS0
	0002       : VAR XPOS0
	0004       : VAR XPOSACT
	0006       : VAR YPOSACT
	0008       : VAR LASERPWM
	000C       : VAR XPOSOUT
	000E       : VAR YPOSOUT

END_FUNCTION_BLOCK
**************************************************
	List function block: StepperSEQ
**************************************************

FUNCTION_BLOCK StepperSEQ

        VAR_INPUT
XPOSIN : INT;
YPOSIN : INT;
ZPOSIN : INT;
XPOSACT : INT;
YPOSACT : INT;
ZPOSACT : INT;
	END_VAR

        VAR_OUTPUT
XPOSOUT : INT;
YPOSOUT : INT;
ZPOSOUT : INT;
	END_VAR

        VAR_EXTERNAL
	{G:"Global_vars"}
curSeq : INT := 10;
	END_VAR

END_FUNCTION_BLOCK

30001838  E92D 4040		stmdb sp!, { r6, lr }
3000183C  462E     		mov r6, r5

#0			{SRC:StepperSEQ}
#1		 
#2		  
#3			(* Network 1 *)
#4			LD		TRUE
(-) UNDEF
3000183E  2001     		mov r0, #1 ; 1

#5			ST		$$VAR$1
(-) BOOL
30001840  7070     		strb r0, [r6, #1]

#6			JMPCN	$$LAB$1
(-) BOOL
30001842  2800     		cmp r0, #0
30001844  D011     		beq #34 ; 0x3000186A


#7			(* $EXPR1$91 := XPOSIN + XOFF; *)
#8			LD		XPOSIN	{R:1$91}
(*) UNDEF
30001848  F8DF 70EC		ldr r7, [pc, #+236] ; 0x6
3000184C  5FF0     		ldrsh r0, [r6, +r7]

#9			ADD		XOFF	{R:1$91}
(*) INT
3000184E  2700     		mov r7, #0 ; 0
30001850  19C0     		add r0, r0, r7

#10			ST		$EXPR1$91	{R:1$91}
(-) INT
30001852  8330     		strh r0, [r6, #24]

#11			LD		$EXPR1$91 {R:1$91}
(*) UNDEF
30001854  F8DF 70F8		ldr r7, [pc, #+248] ; 0x18
30001858  5FF0     		ldrsh r0, [r6, +r7]

#12			EQ		XPOSACT {R:1$51}
(*) INT
3000185A  F8DF 70E8		ldr r7, [pc, #+232] ; 0xC
3000185E  5FF7     		ldrsh r7, [r6, +r7]
30001860  42B8     		cmp r0, r7
30001862  BF18 2000		nemov r0, #0
30001866  BF08 2001		eqmov r0, #1

#13		$$LAB$1:
#14			ST		$$VAR$2
(-) BOOL
3000186A  70B0     		strb r0, [r6, #2]

#15			JMPCN	$$LAB$2
(-) BOOL
3000186C  2800     		cmp r0, #0
3000186E  D011     		beq #34 ; 0x30001894


#16			(* $EXPR1$92 := YPOSIN + YOFF; *)
#17			LD		YPOSIN	{R:1$92}
(*) UNDEF
30001872  F8DF 70C8		ldr r7, [pc, #+200] ; 0x8
30001876  5FF0     		ldrsh r0, [r6, +r7]

#18			ADD		YOFF	{R:1$92}
(*) INT
30001878  2700     		mov r7, #0 ; 0
3000187A  19C0     		add r0, r0, r7

#19			ST		$EXPR1$92	{R:1$92}
(-) INT
3000187C  8370     		strh r0, [r6, #26]

#20			LD		$EXPR1$92 {R:1$92}
(*) UNDEF
3000187E  F8DF 70D4		ldr r7, [pc, #+212] ; 0x1A
30001882  5FF0     		ldrsh r0, [r6, +r7]

#21			EQ		YPOSACT {R:1$82}
(*) INT
30001884  F8DF 70C0		ldr r7, [pc, #+192] ; 0xE
30001888  5FF7     		ldrsh r7, [r6, +r7]
3000188A  42B8     		cmp r0, r7
3000188C  BF18 2000		nemov r0, #0
30001890  BF08 2001		eqmov r0, #1

#22		$$LAB$2:
#23			ST		$$VAR$3
(-) BOOL
30001894  70F0     		strb r0, [r6, #3]

#24			JMPCN	$$LAB$3
(-) BOOL
30001896  2800     		cmp r0, #0
30001898  D011     		beq #34 ; 0x300018BE


#25			(* $EXPR1$93 := ZPOSIN + ZOFF; *)
#26			LD		ZPOSIN	{R:1$93}
(*) UNDEF
3000189C  F8DF 70A0		ldr r7, [pc, #+160] ; 0xA
300018A0  5FF0     		ldrsh r0, [r6, +r7]

#27			ADD		ZOFF	{R:1$93}
(*) INT
300018A2  2700     		mov r7, #0 ; 0
300018A4  19C0     		add r0, r0, r7

#28			ST		$EXPR1$93	{R:1$93}
(-) INT
300018A6  83B0     		strh r0, [r6, #28]

#29			LD		$EXPR1$93 {R:1$93}
(*) UNDEF
300018A8  F8DF 70AC		ldr r7, [pc, #+172] ; 0x1C
300018AC  5FF0     		ldrsh r0, [r6, +r7]

#30			EQ		ZPOSACT {R:1$86}
(*) INT
300018AE  F8DF 709C		ldr r7, [pc, #+156] ; 0x10
300018B2  5FF7     		ldrsh r7, [r6, +r7]
300018B4  42B8     		cmp r0, r7
300018B6  BF18 2000		nemov r0, #0
300018BA  BF08 2001		eqmov r0, #1

#31		$$LAB$3:
#32			ST		$$VAR$4
(-) BOOL
300018BE  7130     		strb r0, [r6, #4]

#33			JMPCN	$$LAB$4
(-) BOOL
300018C0  2800     		cmp r0, #0
300018C2  D008     		beq #16 ; 0x300018D6


#34			LD		curSeq {R:1$59}
(*) UNDEF
300018C6  F8DF 70A0		ldr r7, [pc, #+160] ; 0x200002B6
300018CA  F9B7 0000		ldrsh r0, [r7]

#35			ADD		10 {R:1$60}
(-) INT
300018CE  300A     		add r0, r0, #10

#36			ST		curSeq {R:1$61}
(*) INT
300018D0  F8DF 7094		ldr r7, [pc, #+148] ; 0x200002B6
300018D4  8038     		strh r0, [r7]

#37		$$LAB$4:
#38			LD		$$VAR$4
(-) UNDEF
300018D6  7930     		ldrb r0, [r6, #4]

#39			LD		$$VAR$1
(-) UNDEF
300018D8  7870     		ldrb r0, [r6, #1]

#40			JMPCN	$$LAB$5
(-) BOOL
300018DA  2800     		cmp r0, #0
300018DC  D00A     		beq #20 ; 0x300018F4


#41			(* $EXPR1$88 := XPOSIN + XOFF; *)
#42			LD		XPOSIN	{R:1$88}
(*) UNDEF
300018E0  F8DF 7054		ldr r7, [pc, #+84] ; 0x6
300018E4  5FF0     		ldrsh r0, [r6, +r7]

#43			ADD		XOFF	{R:1$88}
(*) INT
300018E6  2700     		mov r7, #0 ; 0
300018E8  19C0     		add r0, r0, r7

#44			ST		$EXPR1$88	{R:1$88}
(-) INT
300018EA  83F0     		strh r0, [r6, #30]

#45			LD		$EXPR1$88 {R:1$88}
(*) UNDEF
300018EC  F8DF 706C		ldr r7, [pc, #+108] ; 0x1E
300018F0  5FF0     		ldrsh r0, [r6, +r7]

#46			ST		XPOSOUT {R:1$72}
(-) INT
300018F2  8270     		strh r0, [r6, #18]

#47		$$LAB$5:
#48			LD		$$VAR$1
(-) UNDEF
300018F4  7870     		ldrb r0, [r6, #1]

#49			LD		$$VAR$1
(-) UNDEF
300018F6  7870     		ldrb r0, [r6, #1]

#50			JMPCN	$$LAB$6
(-) BOOL
300018F8  2800     		cmp r0, #0
300018FA  D00A     		beq #20 ; 0x30001912


#51			(* $EXPR1$89 := YPOSIN + YOFF; *)
#52			LD		YPOSIN	{R:1$89}
(*) UNDEF
300018FE  F8DF 703C		ldr r7, [pc, #+60] ; 0x8
30001902  5FF0     		ldrsh r0, [r6, +r7]

#53			ADD		YOFF	{R:1$89}
(*) INT
30001904  2700     		mov r7, #0 ; 0
30001906  19C0     		add r0, r0, r7

#54			ST		$EXPR1$89	{R:1$89}
(-) INT
30001908  8430     		strh r0, [r6, #32]

#55			LD		$EXPR1$89 {R:1$89}
(*) UNDEF
3000190A  F8DF 7054		ldr r7, [pc, #+84] ; 0x20
3000190E  5FF0     		ldrsh r0, [r6, +r7]

#56			ST		YPOSOUT {R:1$76}
(-) INT
30001910  82B0     		strh r0, [r6, #20]

#57		$$LAB$6:
#58			LD		$$VAR$1
(-) UNDEF
30001912  7870     		ldrb r0, [r6, #1]

#59			LD		$$VAR$1
(-) UNDEF
30001914  7870     		ldrb r0, [r6, #1]

#60			JMPCN	$$LAB$7
(-) BOOL
30001916  2800     		cmp r0, #0
30001918  D00A     		beq #20 ; 0x30001930


#61			(* $EXPR1$90 := ZPOSIN + ZOFF; *)
#62			LD		ZPOSIN	{R:1$90}
(*) UNDEF
3000191C  F8DF 7020		ldr r7, [pc, #+32] ; 0xA
30001920  5FF0     		ldrsh r0, [r6, +r7]

#63			ADD		ZOFF	{R:1$90}
(*) INT
30001922  2700     		mov r7, #0 ; 0
30001924  19C0     		add r0, r0, r7

#64			ST		$EXPR1$90	{R:1$90}
(-) INT
30001926  8470     		strh r0, [r6, #34]

#65			LD		$EXPR1$90 {R:1$90}
(*) UNDEF
30001928  F8DF 7038		ldr r7, [pc, #+56] ; 0x22
3000192C  5FF0     		ldrsh r0, [r6, +r7]

#66			ST		ZPOSOUT {R:1$79}
(-) INT
3000192E  82F0     		strh r0, [r6, #22]

#67		$$LAB$7:
#68			LD		$$VAR$1
(-) UNDEF
30001930  7870     		ldrb r0, [r6, #1]

30001932  E8BD 4040		ldmia sp!, { r6, lr }

30001936  4770     		bx lr

30001938  00000006		; 0x00000006
3000193C  00000008		; 0x00000008
30001940  0000000A		; 0x0000000A
30001944  0000000C		; 0x0000000C
30001948  0000000E		; 0x0000000E
3000194C  00000010		; 0x00000010
30001950  00000018		; 0x00000018
30001954  0000001A		; 0x0000001A
30001958  0000001C		; 0x0000001C
3000195C  0000001E		; 0x0000001E
30001960  00000020		; 0x00000020
30001964  00000022		; 0x00000022
30001968  200002B6		; 0x200002B6


Frame allocation:

	0000 bit  0: VAR $$VAR$0
	0001 bit  0: VAR $$VAR$1
	0002 bit  0: VAR $$VAR$2
	0003 bit  0: VAR $$VAR$3
	0004 bit  0: VAR $$VAR$4
	0006       : VAR XPOSIN
	0008       : VAR YPOSIN
	000A       : VAR ZPOSIN
	000C       : VAR XPOSACT
	000E       : VAR YPOSACT
	0010       : VAR ZPOSACT
	0012       : VAR XPOSOUT
	0014       : VAR YPOSOUT
	0016       : VAR ZPOSOUT

END_FUNCTION_BLOCK
**************************************************
	List function block: TON
**************************************************

FUNCTION_BLOCK TON

	{ DE:"<HTML>The TON block produces a delayed output Q of the input IN. The delay time is expressed in milliseconds on the PT input.</br></br>
<img src= tonscheme.png>
<ul>
<li>if IN is FALSE Q is false</li>
<li>Q becomes TRUE as IN remains TRUE for PT milliseconds</li>
<li>Q remains TRUE until IN remains TRUE</li>
</ul>" }

        VAR_INPUT
IN : BOOL;	{ DE:"Timer input source" }
PT : UDINT;	{ DE:"Preset time value (ms)" }
	END_VAR

        VAR_OUTPUT
Q : BOOL;	{ DE:"Timer output" }
ET : UDINT;	{ DE:"Timer current value (ms)" }
	END_VAR

        VAR_EXTERNAL
	{G:"System_Timers"}
sysTimer AT %MD60000.0 : UDINT;	{ DE:"System timer [ms]" }
	END_VAR

        VAR
timStart : UDINT;	{ DE:"Time value at start of counting" }
	END_VAR

END_FUNCTION_BLOCK

3000196C  E92D 4040		stmdb sp!, { r6, lr }
30001970  462E     		mov r6, r5

#0		{SRC:TON}
#1		
#2			(*	Check if in counting	*)
#3		
#4			LD		IN
(-) UNDEF
30001972  7930     		ldrb r0, [r6, #4]

#5			JMPCN	lReset
(-) BOOL
30001974  2800     		cmp r0, #0
30001976  D025     		beq #74 ; 0x300019C4


#6		
#7			(*	Check if Q is TRUE *)
#8			LD		Q
(-) UNDEF
3000197A  7B30     		ldrb r0, [r6, #12]

#9			RETC
#10			
(-) BOOL
3000197C  2800     		cmp r0, #0
3000197E  D126     		bne #76 ; 0x300019CE


#11			(*	Check if already in counting *)
#12			LD		timStart
(-) UNDEF
30001982  6830     		ldr r0, [r6]

#13			EQ		0
(*) UDINT
30001984  2800     		cmp r0, #0
30001986  BF18 2000		nemov r0, #0
3000198A  BF08 2001		eqmov r0, #1

#14			JMPCN	lUpdate
(-) BOOL
3000198E  2800     		cmp r0, #0
30001990  D004     		beq #8 ; 0x3000199C


#15		
#16			(*	Start of counting *)
#17			LD		sysTimer
(*) UNDEF
30001994  F8DF 703C		ldr r7, [pc, #+60] ; 0x2401F590
30001998  6838     		ldr r0, [r7]

#18			ST		timStart
(-) UDINT
3000199A  6030     		str r0, [r6]

#19			
#20		lUpdate:
#21		
#22			(*	Update timer and check if time elapsed *)
#23			LD		sysTimer
(*) UNDEF
3000199C  F8DF 7034		ldr r7, [pc, #+52] ; 0x2401F590
300019A0  6838     		ldr r0, [r7]

#24			SUB		timStart
(*) UDINT
300019A2  6837     		ldr r7, [r6]
300019A4  1BC0     		sub r0, r0, r7

#25			ST		ET
(-) UDINT
300019A6  6130     		str r0, [r6, #16]

#26			GE		PT
(*) UDINT
300019A8  68B7     		ldr r7, [r6, #8]
300019AA  42B8     		cmp r0, r7
300019AC  BF38 2000		lomov r0, #0
300019B0  BF28 2001		hsmov r0, #1

#27			ST		Q
(-) BOOL
300019B4  7330     		strb r0, [r6, #12]

#28			RETCN
#29		
(-) BOOL
300019B6  2800     		cmp r0, #0
300019B8  D009     		beq #18 ; 0x300019CE


#30			(*	Limit actual time value *)
#31			LD		PT
(-) UNDEF
300019BC  68B0     		ldr r0, [r6, #8]

#32			ST		ET
(-) UDINT
300019BE  6130     		str r0, [r6, #16]

#33			RET
#34		
(-) UDINT
300019C0  E005     		b #10 ; 0x300019CE


#35		lReset:
#36		
#37			(*	Reset status *)
#38			LD		0
(-) UNDEF
300019C4  2000     		mov r0, #0 ; 0

#39			ST		ET
(-) USINT
300019C6  6130     		str r0, [r6, #16]

#40			ST		timStart
(-) UDINT
300019C8  6030     		str r0, [r6]

#41			LD		FALSE
(-) UNDEF
300019CA  2000     		mov r0, #0 ; 0

#42			ST		Q
(-) BOOL
300019CC  7330     		strb r0, [r6, #12]

300019CE  E8BD 4040		ldmia sp!, { r6, lr }

300019D2  4770     		bx lr

300019D4  FFFFFFFF		; 0x2401F590


Frame allocation:

	0000       : VAR timStart
	0004 bit  0: VAR IN
	0008       : VAR PT
	000C bit  0: VAR Q
	0010       : VAR ET

END_FUNCTION_BLOCK
**************************************************
	List program: main
**************************************************

PROGRAM main

        VAR
home_tim : TON;
ZPosInit : INT := 12000;
XPosInit : INT := 1000;
YPosInit : INT := 8000;
pick : INT := 0;
place : INT := 2;
XSpeedInit : INT := 750;
YSpeedInit : INT := 750;
ZSpeedInit : INT := 400;
APosInit : INT := 0;
ASpeedInit : INT := 1500;
laserPWR : REAL := 0;
fireSol0 : BOOL;
	END_VAR

END_PROGRAM

300019E0  B082     		sub sp, sp, #8
300019E2  F8CD E000		str lr, [sp]
300019E6  E92D 0FF0		stmdb sp!, { r4, r5, r6, r7, r8, r9, r10, r11 }

#0			{SRC:main}
#1		 
#2		  
#3			(* Network 1 *)
#4			LD		Home {R:1$5}
(*) UNDEF
300019EA  F8DF 7228		ldr r7, [pc, #+552] ; 0x38000212
300019EE  7838     		ldrb r0, [r7]

#5			ST		home_tim.IN {R:1$2}
(*) BOOL
300019F0  F8DF 71D0		ldr r7, [pc, #+464] ; 0x200006EC
300019F4  7038     		strb r0, [r7]

#6			MOVE		PBTimeOff,home_tim.PT {R:1$2}
(*) BOOL
300019F6  20C8     		mov r0, #200 ; 200
300019F8  F8DF 71CC		ldr r7, [pc, #+460] ; 0x200006F0
300019FC  6038     		str r0, [r7]

#7			CAL		home_tim {R:1$2}
(*) UDINT
300019FE  E92D 0021		stmdb sp!, { r0, r5 }
30001A02  F8DF 51BC		ldr r5, [pc, #+444] ; 0x200006E8
30001A06  467C     		mov r4, pc
30001A08  3C9E     		sub r4, r4, #+0x9E ; 0x3000196C
30001A0A  F044 0401		orr r4, r4, #1
30001A0E  47A0     		blx r4
30001A10  E8BD 0021		ldmia sp!, { r0, r5 }

#8			LD		home_tim.Q {R:1$2}
(*) UNDEF
30001A14  F8DF 71B4		ldr r7, [pc, #+436] ; 0x200006F4
30001A18  7838     		ldrb r0, [r7]

#9			R		Home {R:1$4}
(*) BOOL
30001A1A  2800     		cmp r0, #0
30001A1C  D009     		beq #0x000012
30001A1E  B082     		sub sp, sp, #8
30001A20  F8CD 0000		str r0, [sp]
30001A24  2000     		mov r0, #0
30001A26  F8DF 71EC		ldr r7, [pc, #+492] ; 0x38000212
30001A2A  7038     		strb r0, [r7]
30001A2C  F8DD 0000		ldr r0, [sp]
30001A30  B002     		add sp, sp, #8

#10		 
#11			(* Network 2 *)
#12			LD		auto {R:2$0}
(*) UNDEF
30001A32  F8DF 717C		ldr r7, [pc, #+380] ; 0x200002A8
30001A36  7838     		ldrb r0, [r7]

#13			STN		manMode {R:2$2}
(*) BOOL
30001A38  F8DF 7180		ldr r7, [pc, #+384] ; 0x200006D2
30001A3C  B082     		sub sp, sp, #8
30001A3E  F8CD 0000		str r0, [sp]
30001A42  2800     		cmp r0, #0
30001A44  BF08 2001		eqmov r0, #1
30001A48  BF18 2000		nemov r0, #0
30001A4C  7038     		strb r0, [r7]
30001A4E  F8DD 0000		ldr r0, [sp]
30001A52  B002     		add sp, sp, #8

#14		 
#15			(* Network 3 *)
#16			LD		manMode {R:3$2}
(*) UNDEF
30001A54  F8DF 7164		ldr r7, [pc, #+356] ; 0x200006D2
30001A58  7838     		ldrb r0, [r7]

#17			ST		$$VAR$1
(*) BOOL
30001A5A  F8DF 7174		ldr r7, [pc, #+372] ; 0x200006FC
30001A5E  7038     		strb r0, [r7]

#18			JMPCN	$$LAB$1
(-) BOOL
30001A60  2800     		cmp r0, #0
30001A62  D007     		beq #14 ; 0x30001A74


#19			LD		XPosInit {R:3$6}
(*) UNDEF
30001A66  F8DF 7170		ldr r7, [pc, #+368] ; 0x200006FE
30001A6A  F9B7 0000		ldrsh r0, [r7]

#20			ST		XPos {R:3$7}
(*) INT
30001A6E  F8DF 7190		ldr r7, [pc, #+400] ; 0x38000204
30001A72  8038     		strh r0, [r7]

#21		$$LAB$1:
#22			LD		$$VAR$1
(*) UNDEF
30001A74  F8DF 7158		ldr r7, [pc, #+344] ; 0x200006FC
30001A78  7838     		ldrb r0, [r7]

#23			LD		$$VAR$1
(*) UNDEF
30001A7A  F8DF 7154		ldr r7, [pc, #+340] ; 0x200006FC
30001A7E  7838     		ldrb r0, [r7]

#24			JMPCN	$$LAB$2
(-) BOOL
30001A80  2800     		cmp r0, #0
30001A82  D007     		beq #14 ; 0x30001A94


#25			LD		YPosInit {R:3$14}
(*) UNDEF
30001A86  F8DF 7154		ldr r7, [pc, #+340] ; 0x20000700
30001A8A  F9B7 0000		ldrsh r0, [r7]

#26			ST		YPos {R:3$15}
(*) INT
30001A8E  F8DF 7178		ldr r7, [pc, #+376] ; 0x3800020A
30001A92  8038     		strh r0, [r7]

#27		$$LAB$2:
#28			LD		$$VAR$1
(*) UNDEF
30001A94  F8DF 7138		ldr r7, [pc, #+312] ; 0x200006FC
30001A98  7838     		ldrb r0, [r7]

#29			LD		$$VAR$1
(*) UNDEF
30001A9A  F8DF 7134		ldr r7, [pc, #+308] ; 0x200006FC
30001A9E  7838     		ldrb r0, [r7]

#30			JMPCN	$$LAB$3
(-) BOOL
30001AA0  2800     		cmp r0, #0
30001AA2  D007     		beq #14 ; 0x30001AB4


#31			LD		ZPosInit {R:3$17}
(*) UNDEF
30001AA6  F8DF 7138		ldr r7, [pc, #+312] ; 0x20000702
30001AAA  F9B7 0000		ldrsh r0, [r7]

#32			ST		ZPos {R:3$18}
(*) INT
30001AAE  F8DF 7160		ldr r7, [pc, #+352] ; 0x38000210
30001AB2  8038     		strh r0, [r7]

#33		$$LAB$3:
#34			LD		$$VAR$1
(*) UNDEF
30001AB4  F8DF 7118		ldr r7, [pc, #+280] ; 0x200006FC
30001AB8  7838     		ldrb r0, [r7]

#35			LD		$$VAR$1
(*) UNDEF
30001ABA  F8DF 7114		ldr r7, [pc, #+276] ; 0x200006FC
30001ABE  7838     		ldrb r0, [r7]

#36			JMPCN	$$LAB$4
(-) BOOL
30001AC0  2800     		cmp r0, #0
30001AC2  D007     		beq #14 ; 0x30001AD4


#37			LD		APosInit {R:3$39}
(*) UNDEF
30001AC6  F8DF 711C		ldr r7, [pc, #+284] ; 0x20000704
30001ACA  F9B7 0000		ldrsh r0, [r7]

#38			ST		APos {R:3$40}
(*) INT
30001ACE  F8DF 714C		ldr r7, [pc, #+332] ; 0x38000218
30001AD2  8038     		strh r0, [r7]

#39		$$LAB$4:
#40			LD		$$VAR$1
(*) UNDEF
30001AD4  F8DF 70F8		ldr r7, [pc, #+248] ; 0x200006FC
30001AD8  7838     		ldrb r0, [r7]

#41		 
#42			(* Network 4 *)
#43			LD		manMode {R:4$0}
(*) UNDEF
30001ADA  F8DF 70E0		ldr r7, [pc, #+224] ; 0x200006D2
30001ADE  7838     		ldrb r0, [r7]

#44			ST		$$VAR$1
(*) BOOL
30001AE0  F8DF 70EC		ldr r7, [pc, #+236] ; 0x200006FC
30001AE4  7038     		strb r0, [r7]

#45			JMPCN	$$LAB$5
(-) BOOL
30001AE6  2800     		cmp r0, #0
30001AE8  D007     		beq #14 ; 0x30001AFA


#46			LD		moveSpeed {R:4$10}
(*) UNDEF
30001AEC  F8DF 70C8		ldr r7, [pc, #+200] ; 0x2000036C
30001AF0  F9B7 0000		ldrsh r0, [r7]

#47			ST		XSpeed {R:4$11}
(*) INT
30001AF4  F8DF 7104		ldr r7, [pc, #+260] ; 0x38000202
30001AF8  8038     		strh r0, [r7]

#48		$$LAB$5:
#49			LD		$$VAR$1
(*) UNDEF
30001AFA  F8DF 70D4		ldr r7, [pc, #+212] ; 0x200006FC
30001AFE  7838     		ldrb r0, [r7]

#50			LD		$$VAR$1
(*) UNDEF
30001B00  F8DF 70CC		ldr r7, [pc, #+204] ; 0x200006FC
30001B04  7838     		ldrb r0, [r7]

#51			JMPCN	$$LAB$6
(-) BOOL
30001B06  2800     		cmp r0, #0
30001B08  D007     		beq #14 ; 0x30001B1A


#52			LD		moveSpeed {R:4$13}
(*) UNDEF
30001B0C  F8DF 70A8		ldr r7, [pc, #+168] ; 0x2000036C
30001B10  F9B7 0000		ldrsh r0, [r7]

#53			ST		YSpeed {R:4$14}
(*) INT
30001B14  F8DF 70EC		ldr r7, [pc, #+236] ; 0x38000208
30001B18  8038     		strh r0, [r7]

#54		$$LAB$6:
#55			LD		$$VAR$1
(*) UNDEF
30001B1A  F8DF 70B4		ldr r7, [pc, #+180] ; 0x200006FC
30001B1E  7838     		ldrb r0, [r7]

#56			LD		$$VAR$1
(*) UNDEF
30001B20  F8DF 70AC		ldr r7, [pc, #+172] ; 0x200006FC
30001B24  7838     		ldrb r0, [r7]

#57			JMPCN	$$LAB$7
(-) BOOL
30001B26  2800     		cmp r0, #0
30001B28  D007     		beq #14 ; 0x30001B3A


#58			LD		moveSpeed {R:4$16}
(*) UNDEF
30001B2C  F8DF 7088		ldr r7, [pc, #+136] ; 0x2000036C
30001B30  F9B7 0000		ldrsh r0, [r7]

#59			ST		ZSpeed {R:4$17}
(*) INT
30001B34  F8DF 70D4		ldr r7, [pc, #+212] ; 0x3800020E
30001B38  8038     		strh r0, [r7]

#60		$$LAB$7:
#61			LD		$$VAR$1
(*) UNDEF
30001B3A  F8DF 7094		ldr r7, [pc, #+148] ; 0x200006FC
30001B3E  7838     		ldrb r0, [r7]

#62			LD		$$VAR$1
(*) UNDEF
30001B40  F8DF 708C		ldr r7, [pc, #+140] ; 0x200006FC
30001B44  7838     		ldrb r0, [r7]

#63			JMPCN	$$LAB$8
(-) BOOL
30001B46  2800     		cmp r0, #0
30001B48  D007     		beq #14 ; 0x30001B5A


#64			LD		ASpeedInit {R:4$21}
(*) UNDEF
30001B4C  F8DF 7098		ldr r7, [pc, #+152] ; 0x20000706
30001B50  F9B7 0000		ldrsh r0, [r7]

#65			ST		ASpeed {R:4$22}
(*) INT
30001B54  F8DF 70C0		ldr r7, [pc, #+192] ; 0x38000216
30001B58  8038     		strh r0, [r7]

#66		$$LAB$8:
#67			LD		$$VAR$1
(*) UNDEF
30001B5A  F8DF 7074		ldr r7, [pc, #+116] ; 0x200006FC
30001B5E  7838     		ldrb r0, [r7]

#68		 
#69			(* Network 5 *)
#70			LD		fireSol0 {R:5$0}
(*) UNDEF
30001B60  F8DF 7070		ldr r7, [pc, #+112] ; 0x200006FD
30001B64  7838     		ldrb r0, [r7]

#71			ST		Sol1 {R:5$2}
(*) BOOL
30001B66  F8DF 708C		ldr r7, [pc, #+140] ; 0x24020672
30001B6A  7038     		strb r0, [r7]

#72		 
#73			(* Network 6 *)
#74			LD		manMode {R:6$0}
(*) UNDEF
30001B6C  F8DF 704C		ldr r7, [pc, #+76] ; 0x200006D2
30001B70  7838     		ldrb r0, [r7]

#75			JMPCN	$$LAB$9
(-) BOOL
30001B72  2800     		cmp r0, #0
30001B74  D007     		beq #14 ; 0x30001B86


#76			LD		pick {R:6$3}
(*) UNDEF
30001B78  F8DF 7070		ldr r7, [pc, #+112] ; 0x20000708
30001B7C  F9B7 0000		ldrsh r0, [r7]

#77			ST		pickIndex {R:6$4}
(*) INT
30001B80  F8DF 7030		ldr r7, [pc, #+48] ; 0x200002BA
30001B84  8038     		strh r0, [r7]

#78		$$LAB$9:
#79			LD		manMode
(*) UNDEF
30001B86  F8DF 7034		ldr r7, [pc, #+52] ; 0x200006D2
30001B8A  7838     		ldrb r0, [r7]

#80		 
#81			(* Network 7 *)
#82			LD		manMode {R:7$0}
(*) UNDEF
30001B8C  F8DF 702C		ldr r7, [pc, #+44] ; 0x200006D2
30001B90  7838     		ldrb r0, [r7]

#83			JMPCN	$$LAB$10
(-) BOOL
30001B92  2800     		cmp r0, #0
30001B94  D008     		beq #16 ; 0x30001BA8


#84			LD		laserPWR {R:7$3}
(*) UNDEF
30001B98  F8DF 7054		ldr r7, [pc, #+84] ; 0x2000070C
30001B9C  ED97 0A00		flds s0, [r7]

#85			ST		laserPWM {R:7$4}
(*) REAL
30001BA0  F8DF 7054		ldr r7, [pc, #+84] ; 0x240206F4
30001BA4  ED87 0A00		fsts s0, [r7]

#86		$$LAB$10:
#87			LD		manMode
(*) UNDEF
30001BA8  F8DF 7010		ldr r7, [pc, #+16] ; 0x200006D2
30001BAC  7838     		ldrb r0, [r7]

30001BAE  E037     		b #110

30001BB0  200002A8		; 0x200002A8
30001BB4  200002BA		; 0x200002BA
30001BB8  2000036C		; 0x2000036C
30001BBC  200006D2		; 0x200006D2
30001BC0  200006E8		; 0x200006E8
30001BC4  200006EC		; 0x200006EC
30001BC8  200006F0		; 0x200006F0
30001BCC  200006F4		; 0x200006F4
30001BD0  200006FC		; 0x200006FC
30001BD4  200006FD		; 0x200006FD
30001BD8  200006FE		; 0x200006FE
30001BDC  20000700		; 0x20000700
30001BE0  20000702		; 0x20000702
30001BE4  20000704		; 0x20000704
30001BE8  20000706		; 0x20000706
30001BEC  20000708		; 0x20000708
30001BF0  2000070C		; 0x2000070C
30001BF4  FFFFFFFF		; 0x24020672
30001BF8  FFFFFFFF		; 0x240206F4
30001BFC  FFFFFFFF		; 0x38000202
30001C00  FFFFFFFF		; 0x38000204
30001C04  FFFFFFFF		; 0x38000208
30001C08  FFFFFFFF		; 0x3800020A
30001C0C  FFFFFFFF		; 0x3800020E
30001C10  FFFFFFFF		; 0x38000210
30001C14  FFFFFFFF		; 0x38000212
30001C18  FFFFFFFF		; 0x38000216
30001C1C  FFFFFFFF		; 0x38000218

END_PROGRAM
**************************************************
	List program: Sched
**************************************************

PROGRAM Sched

        VAR
START_PB : BOOL;
PB_Timer : TON;
	END_VAR

END_PROGRAM

#0			{SRC:Sched}
#1		 
#2		 	(* P/N contacts management *)
#3			LD		START_PB
(*) UNDEF
30001C20  F8DF 7264		ldr r7, [pc, #+612] ; 0x200006BE
30001C24  7838     		ldrb r0, [r7]

#4			ANDN	$$MEMPC$START_PB
(*) BOOL
30001C26  F8DF 7264		ldr r7, [pc, #+612] ; 0x200006C8
30001C2A  783F     		ldrb r7, [r7]
30001C2C  2F00     		cmp r7, #0
30001C2E  BF08 2701		eqmov r7, #1
30001C32  BF18 2700		nemov r7, #0
30001C36  4038     		and r0, r0, r7

#5			ST		$$PC$START_PB
(*) BOOL
30001C38  F8DF 7254		ldr r7, [pc, #+596] ; 0x200006C9
30001C3C  7038     		strb r0, [r7]

#6			LD		START_PB
(*) UNDEF
30001C3E  F8DF 7248		ldr r7, [pc, #+584] ; 0x200006BE
30001C42  7838     		ldrb r0, [r7]

#7			ST		$$MEMPC$START_PB
(*) BOOL
30001C44  F8DF 7244		ldr r7, [pc, #+580] ; 0x200006C8
30001C48  7038     		strb r0, [r7]

#8			LDN		engraveSeq
(*) UNDEF
30001C4A  F8DF 722C		ldr r7, [pc, #+556] ; 0x2000036E
30001C4E  7838     		ldrb r0, [r7]
30001C50  2800     		cmp r0, #0
30001C52  BF08 2001		eqmov r0, #1
30001C56  BF18 2000		nemov r0, #0

#9			AND		$$MEMNC$engraveSeq
(*) BOOL
30001C5A  F8DF 7238		ldr r7, [pc, #+568] ; 0x200006CA
30001C5E  783F     		ldrb r7, [r7]
30001C60  4038     		and r0, r0, r7

#10			ST		$$NC$engraveSeq
(*) BOOL
30001C62  F8DF 7234		ldr r7, [pc, #+564] ; 0x200006CB
30001C66  7038     		strb r0, [r7]

#11			LD		engraveSeq
(*) UNDEF
30001C68  F8DF 720C		ldr r7, [pc, #+524] ; 0x2000036E
30001C6C  7838     		ldrb r0, [r7]

#12			ST		$$MEMNC$engraveSeq
(*) BOOL
30001C6E  F8DF 7224		ldr r7, [pc, #+548] ; 0x200006CA
30001C72  7038     		strb r0, [r7]

#13			LDN		cutSeq
(*) UNDEF
30001C74  F8DF 71F4		ldr r7, [pc, #+500] ; 0x200002A5
30001C78  7838     		ldrb r0, [r7]
30001C7A  2800     		cmp r0, #0
30001C7C  BF08 2001		eqmov r0, #1
30001C80  BF18 2000		nemov r0, #0

#14			AND		$$MEMNC$cutSeq
(*) BOOL
30001C84  F8DF 7214		ldr r7, [pc, #+532] ; 0x200006CC
30001C88  783F     		ldrb r7, [r7]
30001C8A  4038     		and r0, r0, r7

#15			ST		$$NC$cutSeq
(*) BOOL
30001C8C  F8DF 7210		ldr r7, [pc, #+528] ; 0x200006CD
30001C90  7038     		strb r0, [r7]

#16			LD		cutSeq
(*) UNDEF
30001C92  F8DF 71D8		ldr r7, [pc, #+472] ; 0x200002A5
30001C96  7838     		ldrb r0, [r7]

#17			ST		$$MEMNC$cutSeq
(*) BOOL
30001C98  F8DF 7200		ldr r7, [pc, #+512] ; 0x200006CC
30001C9C  7038     		strb r0, [r7]

#18			LDN		pickSeq
(*) UNDEF
30001C9E  F8DF 71DC		ldr r7, [pc, #+476] ; 0x2000039B
30001CA2  7838     		ldrb r0, [r7]
30001CA4  2800     		cmp r0, #0
30001CA6  BF08 2001		eqmov r0, #1
30001CAA  BF18 2000		nemov r0, #0

#19			AND		$$MEMNC$pickSeq
(*) BOOL
30001CAE  F8DF 71F4		ldr r7, [pc, #+500] ; 0x200006CE
30001CB2  783F     		ldrb r7, [r7]
30001CB4  4038     		and r0, r0, r7

#20			ST		$$NC$pickSeq
(*) BOOL
30001CB6  F8DF 71F0		ldr r7, [pc, #+496] ; 0x200006CF
30001CBA  7038     		strb r0, [r7]

#21			LD		pickSeq
(*) UNDEF
30001CBC  F8DF 71BC		ldr r7, [pc, #+444] ; 0x2000039B
30001CC0  7838     		ldrb r0, [r7]

#22			ST		$$MEMNC$pickSeq
(*) BOOL
30001CC2  F8DF 71E0		ldr r7, [pc, #+480] ; 0x200006CE
30001CC6  7038     		strb r0, [r7]

#23			LDN		placeSeq
(*) UNDEF
30001CC8  F8DF 71B4		ldr r7, [pc, #+436] ; 0x200004CC
30001CCC  7838     		ldrb r0, [r7]
30001CCE  2800     		cmp r0, #0
30001CD0  BF08 2001		eqmov r0, #1
30001CD4  BF18 2000		nemov r0, #0

#24			AND		$$MEMNC$placeSeq
(*) BOOL
30001CD8  F8DF 71D0		ldr r7, [pc, #+464] ; 0x200006D0
30001CDC  783F     		ldrb r7, [r7]
30001CDE  4038     		and r0, r0, r7

#25			ST		$$NC$placeSeq
(*) BOOL
30001CE0  F8DF 71CC		ldr r7, [pc, #+460] ; 0x200006D1
30001CE4  7038     		strb r0, [r7]

#26			LD		placeSeq
(*) UNDEF
30001CE6  F8DF 7198		ldr r7, [pc, #+408] ; 0x200004CC
30001CEA  7838     		ldrb r0, [r7]

#27			ST		$$MEMNC$placeSeq
(*) BOOL
30001CEC  F8DF 71BC		ldr r7, [pc, #+444] ; 0x200006D0
30001CF0  7038     		strb r0, [r7]

#28		 
#29			(* Network 1 *)
#30			LD		START_PB {R:1$4}
(*) UNDEF
30001CF2  F8DF 7194		ldr r7, [pc, #+404] ; 0x200006BE
30001CF6  7838     		ldrb r0, [r7]

#31			ST		PB_Timer.IN {R:1$5}
(*) BOOL
30001CF8  F8DF 71C0		ldr r7, [pc, #+448] ; 0x200006D8
30001CFC  7038     		strb r0, [r7]

#32			MOVE		PBTimeOff,PB_Timer.PT {R:1$5}
(*) BOOL
30001CFE  20C8     		mov r0, #200 ; 200
30001D00  F8DF 71BC		ldr r7, [pc, #+444] ; 0x200006DC
30001D04  6038     		str r0, [r7]

#33			CAL		PB_Timer {R:1$5}
(*) UDINT
30001D06  E92D 0021		stmdb sp!, { r0, r5 }
30001D0A  F8DF 51AC		ldr r5, [pc, #+428] ; 0x200006D4
30001D0E  F8DF 41B8		ldr r4, [pc, #+440] ; 0x3000196C
30001D12  F044 0401		orr r4, r4, #1
30001D16  47A0     		blx r4
30001D18  E8BD 0021		ldmia sp!, { r0, r5 }

#34			LD		PB_Timer.Q {R:1$5}
(*) UNDEF
30001D1C  F8DF 71A4		ldr r7, [pc, #+420] ; 0x200006E0
30001D20  7838     		ldrb r0, [r7]

#35			R		START_PB {R:1$1}
(*) BOOL
30001D22  2800     		cmp r0, #0
30001D24  D009     		beq #0x000012
30001D26  B082     		sub sp, sp, #8
30001D28  F8CD 0000		str r0, [sp]
30001D2C  2000     		mov r0, #0
30001D2E  F8DF 7158		ldr r7, [pc, #+344] ; 0x200006BE
30001D32  7038     		strb r0, [r7]
30001D34  F8DD 0000		ldr r0, [sp]
30001D38  B002     		add sp, sp, #8

#36		 
#37			(* Network 2 *)
#38			LD		$$PC$START_PB
(*) UNDEF
30001D3A  F8DF 7154		ldr r7, [pc, #+340] ; 0x200006C9
30001D3E  7838     		ldrb r0, [r7]

#39			S		auto {R:2$1}
(*) BOOL
30001D40  2800     		cmp r0, #0
30001D42  D009     		beq #0x000012
30001D44  B082     		sub sp, sp, #8
30001D46  F8CD 0000		str r0, [sp]
30001D4A  2001     		mov r0, #1
30001D4C  F8DF 7120		ldr r7, [pc, #+288] ; 0x200002A8
30001D50  7038     		strb r0, [r7]
30001D52  F8DD 0000		ldr r0, [sp]
30001D56  B002     		add sp, sp, #8

#40			S		engraveSeq {R:2$4}
(*) BOOL
30001D58  2800     		cmp r0, #0
30001D5A  D009     		beq #0x000012
30001D5C  B082     		sub sp, sp, #8
30001D5E  F8CD 0000		str r0, [sp]
30001D62  2001     		mov r0, #1
30001D64  F8DF 7110		ldr r7, [pc, #+272] ; 0x2000036E
30001D68  7038     		strb r0, [r7]
30001D6A  F8DD 0000		ldr r0, [sp]
30001D6E  B002     		add sp, sp, #8

#41		 
#42			(* Network 3 *)
#43			LD		$$NC$engraveSeq
(*) UNDEF
30001D70  F8DF 7124		ldr r7, [pc, #+292] ; 0x200006CB
30001D74  7838     		ldrb r0, [r7]

#44			ST		$$VAR$1
(*) BOOL
30001D76  F8DF 713C		ldr r7, [pc, #+316] ; 0x200006D3
30001D7A  7038     		strb r0, [r7]

#45			JMPCN	$$LAB$1
(-) BOOL
30001D7C  2800     		cmp r0, #0
30001D7E  D004     		beq #8 ; 0x30001D8A


#46			LD		10 {R:3$3}
(-) UNDEF
30001D82  200A     		mov r0, #10 ; 10

#47			ST		curSeq {R:3$4}
(*) USINT
30001D84  F8DF 70EC		ldr r7, [pc, #+236] ; 0x200002B6
30001D88  8038     		strh r0, [r7]

#48		$$LAB$1:
#49			LD		$$VAR$1
(*) UNDEF
30001D8A  F8DF 7128		ldr r7, [pc, #+296] ; 0x200006D3
30001D8E  7838     		ldrb r0, [r7]

#50			LD		$$VAR$1
(*) UNDEF
30001D90  F8DF 7120		ldr r7, [pc, #+288] ; 0x200006D3
30001D94  7838     		ldrb r0, [r7]

#51			S		cutSeq {R:3$11}
(*) BOOL
30001D96  2800     		cmp r0, #0
30001D98  D009     		beq #0x000012
30001D9A  B082     		sub sp, sp, #8
30001D9C  F8CD 0000		str r0, [sp]
30001DA0  2001     		mov r0, #1
30001DA2  F8DF 70C8		ldr r7, [pc, #+200] ; 0x200002A5
30001DA6  7038     		strb r0, [r7]
30001DA8  F8DD 0000		ldr r0, [sp]
30001DAC  B002     		add sp, sp, #8

#52		 
#53			(* Network 4 *)
#54			LD		$$NC$cutSeq
(*) UNDEF
30001DAE  F8DF 70F0		ldr r7, [pc, #+240] ; 0x200006CD
30001DB2  7838     		ldrb r0, [r7]

#55			ST		$$VAR$1
(*) BOOL
30001DB4  F8DF 70FC		ldr r7, [pc, #+252] ; 0x200006D3
30001DB8  7038     		strb r0, [r7]

#56			JMPCN	$$LAB$2
(-) BOOL
30001DBA  2800     		cmp r0, #0
30001DBC  D004     		beq #8 ; 0x30001DC8


#57			LD		10 {R:4$3}
(-) UNDEF
30001DC0  200A     		mov r0, #10 ; 10

#58			ST		curSeq {R:4$4}
(*) USINT
30001DC2  F8DF 70B0		ldr r7, [pc, #+176] ; 0x200002B6
30001DC6  8038     		strh r0, [r7]

#59		$$LAB$2:
#60			LD		$$VAR$1
(*) UNDEF
30001DC8  F8DF 70E8		ldr r7, [pc, #+232] ; 0x200006D3
30001DCC  7838     		ldrb r0, [r7]

#61			LD		$$VAR$1
(*) UNDEF
30001DCE  F8DF 70E4		ldr r7, [pc, #+228] ; 0x200006D3
30001DD2  7838     		ldrb r0, [r7]

#62			S		pickSeq {R:4$11}
(*) BOOL
30001DD4  2800     		cmp r0, #0
30001DD6  D009     		beq #0x000012
30001DD8  B082     		sub sp, sp, #8
30001DDA  F8CD 0000		str r0, [sp]
30001DDE  2001     		mov r0, #1
30001DE0  F8DF 7098		ldr r7, [pc, #+152] ; 0x2000039B
30001DE4  7038     		strb r0, [r7]
30001DE6  F8DD 0000		ldr r0, [sp]
30001DEA  B002     		add sp, sp, #8

#63		 
#64			(* Network 5 *)
#65			LD		$$NC$pickSeq
(*) UNDEF
30001DEC  F8DF 70B8		ldr r7, [pc, #+184] ; 0x200006CF
30001DF0  7838     		ldrb r0, [r7]

#66			ST		$$VAR$1
(*) BOOL
30001DF2  F8DF 70C0		ldr r7, [pc, #+192] ; 0x200006D3
30001DF6  7038     		strb r0, [r7]

#67			JMPCN	$$LAB$3
(-) BOOL
30001DF8  2800     		cmp r0, #0
30001DFA  D004     		beq #8 ; 0x30001E06


#68			LD		10 {R:5$3}
(-) UNDEF
30001DFE  200A     		mov r0, #10 ; 10

#69			ST		curSeq {R:5$4}
(*) USINT
30001E00  F8DF 7070		ldr r7, [pc, #+112] ; 0x200002B6
30001E04  8038     		strh r0, [r7]

#70		$$LAB$3:
#71			LD		$$VAR$1
(*) UNDEF
30001E06  F8DF 70AC		ldr r7, [pc, #+172] ; 0x200006D3
30001E0A  7838     		ldrb r0, [r7]

#72			LD		$$VAR$1
(*) UNDEF
30001E0C  F8DF 70A4		ldr r7, [pc, #+164] ; 0x200006D3
30001E10  7838     		ldrb r0, [r7]

#73			S		placeSeq {R:5$11}
(*) BOOL
30001E12  2800     		cmp r0, #0
30001E14  D009     		beq #0x000012
30001E16  B082     		sub sp, sp, #8
30001E18  F8CD 0000		str r0, [sp]
30001E1C  2001     		mov r0, #1
30001E1E  F8DF 7060		ldr r7, [pc, #+96] ; 0x200004CC
30001E22  7038     		strb r0, [r7]
30001E24  F8DD 0000		ldr r0, [sp]
30001E28  B002     		add sp, sp, #8

#74		 
#75			(* Network 6 *)
#76			LD		$$NC$placeSeq
(*) UNDEF
30001E2A  F8DF 7084		ldr r7, [pc, #+132] ; 0x200006D1
30001E2E  7838     		ldrb r0, [r7]

#77			ST		$$VAR$1
(*) BOOL
30001E30  F8DF 7080		ldr r7, [pc, #+128] ; 0x200006D3
30001E34  7038     		strb r0, [r7]

#78			JMPCN	$$LAB$4
(-) BOOL
30001E36  2800     		cmp r0, #0
30001E38  D004     		beq #8 ; 0x30001E44


#79			LD		10 {R:6$3}
(-) UNDEF
30001E3C  200A     		mov r0, #10 ; 10

#80			ST		curSeq {R:6$4}
(*) USINT
30001E3E  F8DF 7034		ldr r7, [pc, #+52] ; 0x200002B6
30001E42  8038     		strh r0, [r7]

#81		$$LAB$4:
#82			LD		$$VAR$1
(*) UNDEF
30001E44  F8DF 706C		ldr r7, [pc, #+108] ; 0x200006D3
30001E48  7838     		ldrb r0, [r7]

#83			LD		$$VAR$1
(*) UNDEF
30001E4A  F8DF 7068		ldr r7, [pc, #+104] ; 0x200006D3
30001E4E  7838     		ldrb r0, [r7]

#84			S		pushSeq {R:6$11}
(*) BOOL
30001E50  2800     		cmp r0, #0
30001E52  D009     		beq #0x000012
30001E54  B082     		sub sp, sp, #8
30001E56  F8CD 0000		str r0, [sp]
30001E5A  2001     		mov r0, #1
30001E5C  F8DF 7024		ldr r7, [pc, #+36] ; 0x20000571
30001E60  7038     		strb r0, [r7]
30001E62  F8DD 0000		ldr r0, [sp]
30001E66  B002     		add sp, sp, #8

30001E68  E030     		b #96

30001E6C  200002A5		; 0x200002A5
30001E70  200002A8		; 0x200002A8
30001E74  200002B6		; 0x200002B6
30001E78  2000036E		; 0x2000036E
30001E7C  2000039B		; 0x2000039B
30001E80  200004CC		; 0x200004CC
30001E84  20000571		; 0x20000571
30001E88  200006BE		; 0x200006BE
30001E8C  200006C8		; 0x200006C8
30001E90  200006C9		; 0x200006C9
30001E94  200006CA		; 0x200006CA
30001E98  200006CB		; 0x200006CB
30001E9C  200006CC		; 0x200006CC
30001EA0  200006CD		; 0x200006CD
30001EA4  200006CE		; 0x200006CE
30001EA8  200006CF		; 0x200006CF
30001EAC  200006D0		; 0x200006D0
30001EB0  200006D1		; 0x200006D1
30001EB4  200006D3		; 0x200006D3
30001EB8  200006D4		; 0x200006D4
30001EBC  200006D8		; 0x200006D8
30001EC0  200006DC		; 0x200006DC
30001EC4  200006E0		; 0x200006E0
30001EC8  3000196C		; 0x3000196C

END_PROGRAM
**************************************************
	List program: Engrave_SEQ
**************************************************

PROGRAM Engrave_SEQ

        VAR
step0 : StepperSEQ;
engX : EngraveX;
	END_VAR

        VAR CONSTANT
engOffset : INT := 1970;
	END_VAR

END_PROGRAM

#0			{SRC:Engrave_SEQ}
#1		 
#2		 	(* P/N contacts management *)
#3			LD		engraveSeq
(*) UNDEF
30001ECC  F8DF 72AC		ldr r7, [pc, #+684] ; 0x2000036E
30001ED0  7838     		ldrb r0, [r7]

#4			ANDN	$$MEMPC$engraveSeq
(*) BOOL
30001ED2  F8DF 72AC		ldr r7, [pc, #+684] ; 0x2000036F
30001ED6  783F     		ldrb r7, [r7]
30001ED8  2F00     		cmp r7, #0
30001EDA  BF08 2701		eqmov r7, #1
30001EDE  BF18 2700		nemov r7, #0
30001EE2  4038     		and r0, r0, r7

#5			ST		$$PC$engraveSeq
(*) BOOL
30001EE4  F8DF 729C		ldr r7, [pc, #+668] ; 0x20000370
30001EE8  7038     		strb r0, [r7]

#6			LD		engraveSeq
(*) UNDEF
30001EEA  F8DF 7290		ldr r7, [pc, #+656] ; 0x2000036E
30001EEE  7838     		ldrb r0, [r7]

#7			ST		$$MEMPC$engraveSeq
(*) BOOL
30001EF0  F8DF 728C		ldr r7, [pc, #+652] ; 0x2000036F
30001EF4  7038     		strb r0, [r7]

#8		 
#9			(* Network 1 *)
#10			LD		auto {R:1$0}
(*) UNDEF
30001EF6  F8DF 7264		ldr r7, [pc, #+612] ; 0x200002A8
30001EFA  7838     		ldrb r0, [r7]

#11			AND		$$PC$engraveSeq
(*) BOOL
30001EFC  F8DF 7284		ldr r7, [pc, #+644] ; 0x20000370
30001F00  783F     		ldrb r7, [r7]
30001F02  4038     		and r0, r0, r7

#12			ST		$$VAR$1
(*) BOOL
30001F04  F8DF 7280		ldr r7, [pc, #+640] ; 0x20000371
30001F08  7038     		strb r0, [r7]

#13			JMPCN	$$LAB$1
(-) BOOL
30001F0A  2800     		cmp r0, #0
30001F0C  D00D     		beq #26 ; 0x30001F2A


#14			LD		timeRTC[placeIndex] {R:1$12}
(*) UNDEF
30001F10  F8DF 724C		ldr r7, [pc, #+588] ; 0x200002AA
30001F14  F9B7 5000		ldrsh r5, [r7]
30001F18  F8DF 7248		ldr r7, [pc, #+584] ; 0x200002AC
30001F1C  EB07 0745		add r7, r7, r5, lsl #1
30001F20  F9B7 0000		ldrsh r0, [r7]

#15			ST		cutDigit {R:1$14}
(*) INT
30001F24  F8DF 7240		ldr r7, [pc, #+576] ; 0x200002B4
30001F28  8038     		strh r0, [r7]

#16		$$LAB$1:
#17			LD		$$VAR$1
(*) UNDEF
30001F2A  F8DF 725C		ldr r7, [pc, #+604] ; 0x20000371
30001F2E  7838     		ldrb r0, [r7]

#18		 
#19			(* Network 2 *)
#20			LD		auto {R:2$88}
(*) UNDEF
30001F30  F8DF 7228		ldr r7, [pc, #+552] ; 0x200002A8
30001F34  7838     		ldrb r0, [r7]

#21			AND		engraveSeq {R:2$20}
(*) BOOL
30001F36  F8DF 7244		ldr r7, [pc, #+580] ; 0x2000036E
30001F3A  783F     		ldrb r7, [r7]
30001F3C  4038     		and r0, r0, r7

#22			ST		$$VAR$1
(*) BOOL
30001F3E  F8DF 7248		ldr r7, [pc, #+584] ; 0x20000371
30001F42  7038     		strb r0, [r7]

#23			JMPCN	$$LAB$2
(-) BOOL
30001F44  2800     		cmp r0, #0
30001F46  D009     		beq #18 ; 0x30001F5C


#24			LD		curSeq {R:2$60}
(*) UNDEF
30001F4A  F8DF 7220		ldr r7, [pc, #+544] ; 0x200002B6
30001F4E  F9B7 0000		ldrsh r0, [r7]

#25			EQ		10 {R:2$63}
(*) INT
30001F52  280A     		cmp r0, #10
30001F54  BF18 2000		nemov r0, #0
30001F58  BF08 2001		eqmov r0, #1

#26		$$LAB$2:
#27			ST		$$VAR$2
(*) BOOL
30001F5C  F8DF 722C		ldr r7, [pc, #+556] ; 0x20000372
30001F60  7038     		strb r0, [r7]

#28			JMPCN	$$LAB$3
(-) BOOL
30001F62  2800     		cmp r0, #0
30001F64  D04E     		beq #156 ; 0x30002004


#29			MOVE		cutBackX,step0.XPOSIN {R:2$96}
(*) BOOL
30001F68  F8DF 71EC		ldr r7, [pc, #+492] ; 0x3CF0
30001F6C  4638     		mov r0, r7
30001F6E  F8DF 7224		ldr r7, [pc, #+548] ; 0x2000037A
30001F72  8038     		strh r0, [r7]

#30			MOVE		6000,step0.YPOSIN {R:2$96}
(*) INT
30001F74  F8DF 71D8		ldr r7, [pc, #+472] ; 0x1770
30001F78  4638     		mov r0, r7
30001F7A  F8DF 721C		ldr r7, [pc, #+540] ; 0x2000037C
30001F7E  B082     		sub sp, sp, #8
30001F80  F8CD 0000		str r0, [sp]
30001F84  B200     		sxth r0, r0
30001F86  8038     		strh r0, [r7]
30001F88  F8DD 0000		ldr r0, [sp]
30001F8C  B002     		add sp, sp, #8

#31			MOVE		ZTop,step0.ZPOSIN {R:2$96}
(*) UINT
30001F8E  F8DF 71C4		ldr r7, [pc, #+452] ; 0x39D0
30001F92  4638     		mov r0, r7
30001F94  F8DF 7204		ldr r7, [pc, #+516] ; 0x2000037E
30001F98  8038     		strh r0, [r7]

#32			MOVE		XPosAct,step0.XPOSACT {R:2$96}
(*) INT
30001F9A  F8DF 7248		ldr r7, [pc, #+584] ; 0x38000000
30001F9E  F9B7 0000		ldrsh r0, [r7]
30001FA2  F8DF 71FC		ldr r7, [pc, #+508] ; 0x20000380
30001FA6  8038     		strh r0, [r7]

#33			MOVE		YPosAct,step0.YPOSACT {R:2$96}
(*) INT
30001FA8  F8DF 723C		ldr r7, [pc, #+572] ; 0x38000002
30001FAC  F9B7 0000		ldrsh r0, [r7]
30001FB0  F8DF 71F0		ldr r7, [pc, #+496] ; 0x20000382
30001FB4  8038     		strh r0, [r7]

#34			MOVE		ZPosAct,step0.ZPOSACT {R:2$96}
(*) INT
30001FB6  F8DF 7234		ldr r7, [pc, #+564] ; 0x38000004
30001FBA  F9B7 0000		ldrsh r0, [r7]
30001FBE  F8DF 71E8		ldr r7, [pc, #+488] ; 0x20000384
30001FC2  8038     		strh r0, [r7]

#35			CAL		step0 {R:2$96}
(*) INT
30001FC4  E92D 0021		stmdb sp!, { r0, r5 }
30001FC8  F8DF 51C4		ldr r5, [pc, #+452] ; 0x20000374
30001FCC  F8DF 4210		ldr r4, [pc, #+528] ; 0x30001838
30001FD0  F044 0401		orr r4, r4, #1
30001FD4  47A0     		blx r4
30001FD6  E8BD 0021		ldmia sp!, { r0, r5 }

#36			MOVE		step0.XPOSOUT,XPos {R:2$96}
(*) INT
30001FDA  F8DF 71D0		ldr r7, [pc, #+464] ; 0x20000386
30001FDE  F9B7 0000		ldrsh r0, [r7]
30001FE2  F8DF 720C		ldr r7, [pc, #+524] ; 0x38000204
30001FE6  8038     		strh r0, [r7]

#37			MOVE		step0.YPOSOUT,YPos {R:2$96}
(*) INT
30001FE8  F8DF 71C4		ldr r7, [pc, #+452] ; 0x20000388
30001FEC  F9B7 0000		ldrsh r0, [r7]
30001FF0  F8DF 7200		ldr r7, [pc, #+512] ; 0x3800020A
30001FF4  8038     		strh r0, [r7]

#38			MOVE		step0.ZPOSOUT,ZPos {R:2$96}
(*) INT
30001FF6  F8DF 71BC		ldr r7, [pc, #+444] ; 0x2000038A
30001FFA  F9B7 0000		ldrsh r0, [r7]
30001FFE  F8DF 71F8		ldr r7, [pc, #+504] ; 0x38000210
30002002  8038     		strh r0, [r7]

#39		$$LAB$3:
#40			LD		$$VAR$2
(*) UNDEF
30002004  F8DF 7184		ldr r7, [pc, #+388] ; 0x20000372
30002008  7838     		ldrb r0, [r7]

#41		 
#42			(* Network 3 *)
#43			LD		auto {R:3$0}
(*) UNDEF
3000200A  F8DF 7150		ldr r7, [pc, #+336] ; 0x200002A8
3000200E  7838     		ldrb r0, [r7]

#44			AND		engraveSeq {R:3$3}
(*) BOOL
30002010  F8DF 7168		ldr r7, [pc, #+360] ; 0x2000036E
30002014  783F     		ldrb r7, [r7]
30002016  4038     		and r0, r0, r7

#45			ST		$$VAR$1
(*) BOOL
30002018  F8DF 716C		ldr r7, [pc, #+364] ; 0x20000371
3000201C  7038     		strb r0, [r7]

#46			JMPCN	$$LAB$4
(-) BOOL
3000201E  2800     		cmp r0, #0
30002020  D009     		beq #18 ; 0x30002036


#47			LD		curSeq {R:3$43}
(*) UNDEF
30002024  F8DF 7144		ldr r7, [pc, #+324] ; 0x200002B6
30002028  F9B7 0000		ldrsh r0, [r7]

#48			GT		10 {R:3$46}
(*) INT
3000202C  280A     		cmp r0, #10
3000202E  BFD8 2000		lemov r0, #0
30002032  BFC8 2001		gtmov r0, #1

#49		$$LAB$4:
#50			ST		$$VAR$2
(*) BOOL
30002036  F8DF 7154		ldr r7, [pc, #+340] ; 0x20000372
3000203A  7038     		strb r0, [r7]

#51			JMPCN	$$LAB$5
(-) BOOL
3000203C  2800     		cmp r0, #0
3000203E  D04D     		beq #154 ; 0x300020DC


#52			(* $EXPR3$49 := cutPositionsY[pickIndex] - engOffset; *)
#53			LD		cutPositionsY[pickIndex]	{R:3$49}
(*) UNDEF
30002042  F8DF 7130		ldr r7, [pc, #+304] ; 0x200002BA
30002046  F9B7 5000		ldrsh r5, [r7]
3000204A  F8DF 712C		ldr r7, [pc, #+300] ; 0x200002E4
3000204E  EB07 0745		add r7, r7, r5, lsl #1
30002052  F9B7 0000		ldrsh r0, [r7]

#54			SUB		engOffset	{R:3$49}
(*) INT
30002056  F8DF 70F4		ldr r7, [pc, #+244] ; 0x7B2
3000205A  463F     		mov r7, r7
3000205C  1BC0     		sub r0, r0, r7

#55			ST		$EXPR3$49	{R:3$49}
(*) INT
3000205E  F8DF 7174		ldr r7, [pc, #+372] ; 0x20000B42
30002062  8038     		strh r0, [r7]

#56			MOVE		$EXPR3$49,engX.YPOS0 {R:3$48}
(*) INT
30002064  F8DF 716C		ldr r7, [pc, #+364] ; 0x20000B42
30002068  F9B7 0000		ldrsh r0, [r7]
3000206C  F8DF 7148		ldr r7, [pc, #+328] ; 0x2000039C
30002070  8038     		strh r0, [r7]

#57			MOVE		cutBackX,engX.XPOS0 {R:3$48}
(*) INT
30002072  F8DF 70E4		ldr r7, [pc, #+228] ; 0x3CF0
30002076  4638     		mov r0, r7
30002078  F8DF 7140		ldr r7, [pc, #+320] ; 0x2000039E
3000207C  8038     		strh r0, [r7]

#58			MOVE		XPosAct,engX.XPOSACT {R:3$48}
(*) INT
3000207E  F8DF 7164		ldr r7, [pc, #+356] ; 0x38000000
30002082  F9B7 0000		ldrsh r0, [r7]
30002086  F8DF 7138		ldr r7, [pc, #+312] ; 0x200003A0
3000208A  8038     		strh r0, [r7]

#59			MOVE		YPosAct,engX.YPOSACT {R:3$48}
(*) INT
3000208C  F8DF 7158		ldr r7, [pc, #+344] ; 0x38000002
30002090  F9B7 0000		ldrsh r0, [r7]
30002094  F8DF 712C		ldr r7, [pc, #+300] ; 0x200003A2
30002098  8038     		strh r0, [r7]

#60			CAL		engX {R:3$48}
(*) INT
3000209A  E92D 0021		stmdb sp!, { r0, r5 }
3000209E  F8DF 5118		ldr r5, [pc, #+280] ; 0x2000039C
300020A2  F8DF 4138		ldr r4, [pc, #+312] ; 0x30000108
300020A6  F044 0401		orr r4, r4, #1
300020AA  47A0     		blx r4
300020AC  E8BD 0021		ldmia sp!, { r0, r5 }

#61			MOVE		engX.LASERPWM,laserPWM {R:3$48}
(*) INT
300020B0  F8DF 7114		ldr r7, [pc, #+276] ; 0x200003A4
300020B4  ED97 0A00		flds s0, [r7]
300020B8  F8DF 711C		ldr r7, [pc, #+284] ; 0x240206F4
300020BC  ED87 0A00		fsts s0, [r7]

#62			MOVE		engX.XPOSOUT,XPos {R:3$48}
(*) REAL
300020C0  F8DF 7108		ldr r7, [pc, #+264] ; 0x200003A8
300020C4  F9B7 0000		ldrsh r0, [r7]
300020C8  F8DF 7124		ldr r7, [pc, #+292] ; 0x38000204
300020CC  8038     		strh r0, [r7]

#63			MOVE		engX.YPOSOUT,YPos {R:3$48}
(*) INT
300020CE  F8DF 7100		ldr r7, [pc, #+256] ; 0x200003AA
300020D2  F9B7 0000		ldrsh r0, [r7]
300020D6  F8DF 711C		ldr r7, [pc, #+284] ; 0x3800020A
300020DA  8038     		strh r0, [r7]

#64		$$LAB$5:
#65			LD		$$VAR$2
(*) UNDEF
300020DC  F8DF 70AC		ldr r7, [pc, #+172] ; 0x20000372
300020E0  7838     		ldrb r0, [r7]

#66		 
#67			(* Network 4 *)
#68			LD		auto {R:4$17}
(*) UNDEF
300020E2  F8DF 7078		ldr r7, [pc, #+120] ; 0x200002A8
300020E6  7838     		ldrb r0, [r7]

#69			AND		engraveSeq {R:4$18}
(*) BOOL
300020E8  F8DF 7090		ldr r7, [pc, #+144] ; 0x2000036E
300020EC  783F     		ldrb r7, [r7]
300020EE  4038     		and r0, r0, r7

#70			ST		$$VAR$1
(*) BOOL
300020F0  F8DF 7094		ldr r7, [pc, #+148] ; 0x20000371
300020F4  7038     		strb r0, [r7]

#71			JMPCN	$$LAB$6
(-) BOOL
300020F6  2800     		cmp r0, #0
300020F8  D00C     		beq #24 ; 0x30002114


#72			LD		curSeq {R:4$24}
(*) UNDEF
300020FC  F8DF 706C		ldr r7, [pc, #+108] ; 0x200002B6
30002100  F9B7 0000		ldrsh r0, [r7]

#73			EQ		100 {R:4$27}
(*) INT
30002104  2864     		cmp r0, #100
30002106  BF18 2000		nemov r0, #0
3000210A  BF08 2001		eqmov r0, #1

#74			ST		cmplt {R:4$37}
(*) BOOL
3000210E  F8DF 7060		ldr r7, [pc, #+96] ; 0x200002B9
30002112  7038     		strb r0, [r7]

#75		$$LAB$6:
#76			LD		$$VAR$1
(*) UNDEF
30002114  F8DF 7070		ldr r7, [pc, #+112] ; 0x20000371
30002118  7838     		ldrb r0, [r7]

#77		 
#78			(* Network 5 *)
#79			LD		auto {R:5$7}
(*) UNDEF
3000211A  F8DF 7040		ldr r7, [pc, #+64] ; 0x200002A8
3000211E  7838     		ldrb r0, [r7]

#80			AND		engraveSeq {R:5$5}
(*) BOOL
30002120  F8DF 7058		ldr r7, [pc, #+88] ; 0x2000036E
30002124  783F     		ldrb r7, [r7]
30002126  4038     		and r0, r0, r7

#81			AND		cmplt {R:5$2}
(*) BOOL
30002128  F8DF 7044		ldr r7, [pc, #+68] ; 0x200002B9
3000212C  783F     		ldrb r7, [r7]
3000212E  4038     		and r0, r0, r7

#82			R		engraveSeq {R:5$4}
(*) BOOL
30002130  2800     		cmp r0, #0
30002132  D009     		beq #0x000012
30002134  B082     		sub sp, sp, #8
30002136  F8CD 0000		str r0, [sp]
3000213A  2000     		mov r0, #0
3000213C  F8DF 703C		ldr r7, [pc, #+60] ; 0x2000036E
30002140  7038     		strb r0, [r7]
30002142  F8DD 0000		ldr r0, [sp]
30002146  B002     		add sp, sp, #8

30002148  E058     		b #176

3000214C  000007B2		; 0x000007B2
30002150  00001770		; 0x00001770
30002154  000039D0		; 0x000039D0
30002158  00003CF0		; 0x00003CF0
3000215C  200002A8		; 0x200002A8
30002160  200002AA		; 0x200002AA
30002164  200002AC		; 0x200002AC
30002168  200002B4		; 0x200002B4
3000216C  200002B6		; 0x200002B6
30002170  200002B9		; 0x200002B9
30002174  200002BA		; 0x200002BA
30002178  200002E4		; 0x200002E4
3000217C  2000036E		; 0x2000036E
30002180  2000036F		; 0x2000036F
30002184  20000370		; 0x20000370
30002188  20000371		; 0x20000371
3000218C  20000372		; 0x20000372
30002190  20000374		; 0x20000374
30002194  2000037A		; 0x2000037A
30002198  2000037C		; 0x2000037C
3000219C  2000037E		; 0x2000037E
300021A0  20000380		; 0x20000380
300021A4  20000382		; 0x20000382
300021A8  20000384		; 0x20000384
300021AC  20000386		; 0x20000386
300021B0  20000388		; 0x20000388
300021B4  2000038A		; 0x2000038A
300021B8  2000039C		; 0x2000039C
300021BC  2000039E		; 0x2000039E
300021C0  200003A0		; 0x200003A0
300021C4  200003A2		; 0x200003A2
300021C8  200003A4		; 0x200003A4
300021CC  200003A8		; 0x200003A8
300021D0  200003AA		; 0x200003AA
300021D4  20000B42		; 0x20000B42
300021D8  FFFFFFFF		; 0x240206F4
300021DC  30000108		; 0x30000108
300021E0  30001838		; 0x30001838
300021E4  FFFFFFFF		; 0x38000000
300021E8  FFFFFFFF		; 0x38000002
300021EC  FFFFFFFF		; 0x38000004
300021F0  FFFFFFFF		; 0x38000204
300021F4  FFFFFFFF		; 0x3800020A
300021F8  FFFFFFFF		; 0x38000210

END_PROGRAM
**************************************************
	List program: Cut_SEQ
**************************************************

PROGRAM Cut_SEQ

        VAR
cnt0 : CTD;
laserPWR : REAL := 10.0;
step0 : StepperSEQ;
step1 : StepperSEQ;
step2 : StepperSEQ;
step3 : StepperSEQ;
step4 : StepperSEQ;
	END_VAR

        VAR CONSTANT
cutOffset : INT := 1970;
cutSpeed : INT := 6200;
	END_VAR

END_PROGRAM

#0			{SRC:Cut_SEQ}
#1		 
#2		 	(* P/N contacts management *)
#3			LD		cutSeq
(*) UNDEF
300021FC  F8DF 77D4		ldr r7, [pc, #+2004] ; 0x200002A5
30002200  7838     		ldrb r0, [r7]

#4			ANDN	$$MEMPC$cutSeq
(*) BOOL
30002202  F8DF 77D4		ldr r7, [pc, #+2004] ; 0x200002A6
30002206  783F     		ldrb r7, [r7]
30002208  2F00     		cmp r7, #0
3000220A  BF08 2701		eqmov r7, #1
3000220E  BF18 2700		nemov r7, #0
30002212  4038     		and r0, r0, r7

#5			ST		$$PC$cutSeq
(*) BOOL
30002214  F8DF 77C4		ldr r7, [pc, #+1988] ; 0x200002A7
30002218  7038     		strb r0, [r7]

#6			LD		cutSeq
(*) UNDEF
3000221A  F8DF 77B8		ldr r7, [pc, #+1976] ; 0x200002A5
3000221E  7838     		ldrb r0, [r7]

#7			ST		$$MEMPC$cutSeq
(*) BOOL
30002220  F8DF 77B4		ldr r7, [pc, #+1972] ; 0x200002A6
30002224  7038     		strb r0, [r7]

#8		 
#9			(* Network 1 *)
#10			LD		auto {R:1$0}
(*) UNDEF
30002226  F8DF 77B8		ldr r7, [pc, #+1976] ; 0x200002A8
3000222A  7838     		ldrb r0, [r7]

#11			AND		$$PC$cutSeq
(*) BOOL
3000222C  F8DF 77AC		ldr r7, [pc, #+1964] ; 0x200002A7
30002230  783F     		ldrb r7, [r7]
30002232  4038     		and r0, r0, r7

#12			ST		$$VAR$1
(*) BOOL
30002234  F8DF 77AC		ldr r7, [pc, #+1964] ; 0x200002A9
30002238  7038     		strb r0, [r7]

#13			JMPCN	$$LAB$1
(-) BOOL
3000223A  2800     		cmp r0, #0
3000223C  D00D     		beq #26 ; 0x3000225A


#14			LD		timeRTC[placeIndex] {R:1$12}
(*) UNDEF
30002240  F8DF 77A4		ldr r7, [pc, #+1956] ; 0x200002AA
30002244  F9B7 5000		ldrsh r5, [r7]
30002248  F8DF 77A0		ldr r7, [pc, #+1952] ; 0x200002AC
3000224C  EB07 0745		add r7, r7, r5, lsl #1
30002250  F9B7 0000		ldrsh r0, [r7]

#15			ST		cutDigit {R:1$14}
(*) INT
30002254  F8DF 7798		ldr r7, [pc, #+1944] ; 0x200002B4
30002258  8038     		strh r0, [r7]

#16		$$LAB$1:
#17			LD		$$VAR$1
(*) UNDEF
3000225A  F8DF 7788		ldr r7, [pc, #+1928] ; 0x200002A9
3000225E  7838     		ldrb r0, [r7]

#18		 
#19			(* Network 2 *)
#20			LD		auto {R:2$0}
(*) UNDEF
30002260  F8DF 777C		ldr r7, [pc, #+1916] ; 0x200002A8
30002264  7838     		ldrb r0, [r7]

#21			AND		cutSeq {R:2$23}
(*) BOOL
30002266  F8DF 776C		ldr r7, [pc, #+1900] ; 0x200002A5
3000226A  783F     		ldrb r7, [r7]
3000226C  4038     		and r0, r0, r7

#22			ST		$$VAR$1
(*) BOOL
3000226E  F8DF 7774		ldr r7, [pc, #+1908] ; 0x200002A9
30002272  7038     		strb r0, [r7]

#23			JMPCN	$$LAB$2
(-) BOOL
30002274  2800     		cmp r0, #0
30002276  D009     		beq #18 ; 0x3000228C


#24			LD		curSeq {R:2$31}
(*) UNDEF
3000227A  F8DF 7778		ldr r7, [pc, #+1912] ; 0x200002B6
3000227E  F9B7 0000		ldrsh r0, [r7]

#25			GT		10 {R:2$34}
(*) INT
30002282  280A     		cmp r0, #10
30002284  BFD8 2000		lemov r0, #0
30002288  BFC8 2001		gtmov r0, #1

#26		$$LAB$2:
#27			ST		$$VAR$2
(*) BOOL
3000228C  F8DF 7768		ldr r7, [pc, #+1896] ; 0x200002B8
30002290  7038     		strb r0, [r7]

#28			JMPCN	$$LAB$3
(-) BOOL
30002292  2800     		cmp r0, #0
30002294  D009     		beq #18 ; 0x300022AA


#29			LD		pickIndex {R:2$76}
(*) UNDEF
30002298  F8DF 7764		ldr r7, [pc, #+1892] ; 0x200002BA
3000229C  F9B7 0000		ldrsh r0, [r7]

#30			NE	9 {R:2$75}
(*) INT
300022A0  2809     		cmp r0, #9
300022A2  BF08 2000		eqmov r0, #0
300022A6  BF18 2001		nemov r0, #1

#31		$$LAB$3:
#32			ST		$$VAR$3
(*) BOOL
300022AA  F8DF 7804		ldr r7, [pc, #+2052] ; 0x200007B8
300022AE  7038     		strb r0, [r7]

#33			JMPCN	$$LAB$4
(-) BOOL
300022B0  2800     		cmp r0, #0
300022B2  D006     		beq #12 ; 0x300022C2


#34			LD		cutSpeed {R:2$53}
(*) UNDEF
300022B6  F8DF 770C		ldr r7, [pc, #+1804] ; 0x1838
300022BA  4638     		mov r0, r7

#35			ST		XSpeed {R:2$54}
(*) INT
300022BC  F8DF 784C		ldr r7, [pc, #+2124] ; 0x38000202
300022C0  8038     		strh r0, [r7]

#36		$$LAB$4:
#37			LD		$$VAR$3
(*) UNDEF
300022C2  F8DF 77EC		ldr r7, [pc, #+2028] ; 0x200007B8
300022C6  7838     		ldrb r0, [r7]

#38			LD		$$VAR$3
(*) UNDEF
300022C8  F8DF 77E4		ldr r7, [pc, #+2020] ; 0x200007B8
300022CC  7838     		ldrb r0, [r7]

#39			JMPCN	$$LAB$5
(-) BOOL
300022CE  2800     		cmp r0, #0
300022D0  D006     		beq #12 ; 0x300022E0


#40			LD		cutSpeed {R:2$60}
(*) UNDEF
300022D4  F8DF 76EC		ldr r7, [pc, #+1772] ; 0x1838
300022D8  4638     		mov r0, r7

#41			ST		YSpeed {R:2$61}
(*) INT
300022DA  F8DF 7838		ldr r7, [pc, #+2104] ; 0x38000208
300022DE  8038     		strh r0, [r7]

#42		$$LAB$5:
#43			LD		$$VAR$3
(*) UNDEF
300022E0  F8DF 77CC		ldr r7, [pc, #+1996] ; 0x200007B8
300022E4  7838     		ldrb r0, [r7]

#44			LD		$$VAR$3
(*) UNDEF
300022E6  F8DF 77C8		ldr r7, [pc, #+1992] ; 0x200007B8
300022EA  7838     		ldrb r0, [r7]

#45			JMPCN	$$LAB$6
(-) BOOL
300022EC  2800     		cmp r0, #0
300022EE  D008     		beq #16 ; 0x30002302


#46			LD		laserPWR {R:2$73}
(*) UNDEF
300022F2  F8DF 7710		ldr r7, [pc, #+1808] ; 0x200002BC
300022F6  ED97 0A00		flds s0, [r7]

#47			ST		laserPWM {R:2$74}
(*) REAL
300022FA  F8DF 77FC		ldr r7, [pc, #+2044] ; 0x240206F4
300022FE  ED87 0A00		fsts s0, [r7]

#48		$$LAB$6:
#49			LD		$$VAR$3
(*) UNDEF
30002302  F8DF 77AC		ldr r7, [pc, #+1964] ; 0x200007B8
30002306  7838     		ldrb r0, [r7]

#50		 
#51			(* Network 3 *)
#52			LD		auto {R:3$0}
(*) UNDEF
30002308  F8DF 76D4		ldr r7, [pc, #+1748] ; 0x200002A8
3000230C  7838     		ldrb r0, [r7]

#53			AND		cutSeq {R:3$23}
(*) BOOL
3000230E  F8DF 76C4		ldr r7, [pc, #+1732] ; 0x200002A5
30002312  783F     		ldrb r7, [r7]
30002314  4038     		and r0, r0, r7

#54			ST		$$VAR$1
(*) BOOL
30002316  F8DF 76CC		ldr r7, [pc, #+1740] ; 0x200002A9
3000231A  7038     		strb r0, [r7]

#55			JMPCN	$$LAB$7
(-) BOOL
3000231C  2800     		cmp r0, #0
3000231E  D009     		beq #18 ; 0x30002334


#56			LD		curSeq {R:3$31}
(*) UNDEF
30002322  F8DF 76D0		ldr r7, [pc, #+1744] ; 0x200002B6
30002326  F9B7 0000		ldrsh r0, [r7]

#57			GT		20 {R:3$34}
(*) INT
3000232A  2814     		cmp r0, #20
3000232C  BFD8 2000		lemov r0, #0
30002330  BFC8 2001		gtmov r0, #1

#58		$$LAB$7:
#59			ST		$$VAR$2
(*) BOOL
30002334  F8DF 76C0		ldr r7, [pc, #+1728] ; 0x200002B8
30002338  7038     		strb r0, [r7]

#60			JMPCN	$$LAB$8
(-) BOOL
3000233A  2800     		cmp r0, #0
3000233C  D009     		beq #18 ; 0x30002352


#61			LD		pickIndex {R:3$76}
(*) UNDEF
30002340  F8DF 76BC		ldr r7, [pc, #+1724] ; 0x200002BA
30002344  F9B7 0000		ldrsh r0, [r7]

#62			EQ		9 {R:3$79}
(*) INT
30002348  2809     		cmp r0, #9
3000234A  BF18 2000		nemov r0, #0
3000234E  BF08 2001		eqmov r0, #1

#63		$$LAB$8:
#64			ST		$$VAR$3
(*) BOOL
30002352  F8DF 775C		ldr r7, [pc, #+1884] ; 0x200007B8
30002356  7038     		strb r0, [r7]

#65			JMPCN	$$LAB$9
(-) BOOL
30002358  2800     		cmp r0, #0
3000235A  D006     		beq #12 ; 0x3000236A


#66			LD		cutSpeed {R:3$53}
(*) UNDEF
3000235E  F8DF 7664		ldr r7, [pc, #+1636] ; 0x1838
30002362  4638     		mov r0, r7

#67			ST		XSpeed {R:3$54}
(*) INT
30002364  F8DF 77A4		ldr r7, [pc, #+1956] ; 0x38000202
30002368  8038     		strh r0, [r7]

#68		$$LAB$9:
#69			LD		$$VAR$3
(*) UNDEF
3000236A  F8DF 7744		ldr r7, [pc, #+1860] ; 0x200007B8
3000236E  7838     		ldrb r0, [r7]

#70			LD		$$VAR$3
(*) UNDEF
30002370  F8DF 773C		ldr r7, [pc, #+1852] ; 0x200007B8
30002374  7838     		ldrb r0, [r7]

#71			JMPCN	$$LAB$10
(-) BOOL
30002376  2800     		cmp r0, #0
30002378  D006     		beq #12 ; 0x30002388


#72			LD		cutSpeed {R:3$60}
(*) UNDEF
3000237C  F8DF 7644		ldr r7, [pc, #+1604] ; 0x1838
30002380  4638     		mov r0, r7

#73			ST		YSpeed {R:3$61}
(*) INT
30002382  F8DF 7790		ldr r7, [pc, #+1936] ; 0x38000208
30002386  8038     		strh r0, [r7]

#74		$$LAB$10:
#75			LD		$$VAR$3
(*) UNDEF
30002388  F8DF 7724		ldr r7, [pc, #+1828] ; 0x200007B8
3000238C  7838     		ldrb r0, [r7]

#76			LD		$$VAR$3
(*) UNDEF
3000238E  F8DF 7720		ldr r7, [pc, #+1824] ; 0x200007B8
30002392  7838     		ldrb r0, [r7]

#77			JMPCN	$$LAB$11
(-) BOOL
30002394  2800     		cmp r0, #0
30002396  D008     		beq #16 ; 0x300023AA


#78			LD		laserPWR {R:3$73}
(*) UNDEF
3000239A  F8DF 7668		ldr r7, [pc, #+1640] ; 0x200002BC
3000239E  ED97 0A00		flds s0, [r7]

#79			ST		laserPWM {R:3$74}
(*) REAL
300023A2  F8DF 7754		ldr r7, [pc, #+1876] ; 0x240206F4
300023A6  ED87 0A00		fsts s0, [r7]

#80		$$LAB$11:
#81			LD		$$VAR$3
(*) UNDEF
300023AA  F8DF 7704		ldr r7, [pc, #+1796] ; 0x200007B8
300023AE  7838     		ldrb r0, [r7]

#82		 
#83			(* Network 4 *)
#84			LD		auto {R:4$88}
(*) UNDEF
300023B0  F8DF 762C		ldr r7, [pc, #+1580] ; 0x200002A8
300023B4  7838     		ldrb r0, [r7]

#85			AND		cutSeq {R:4$20}
(*) BOOL
300023B6  F8DF 761C		ldr r7, [pc, #+1564] ; 0x200002A5
300023BA  783F     		ldrb r7, [r7]
300023BC  4038     		and r0, r0, r7

#86			ST		$$VAR$1
(*) BOOL
300023BE  F8DF 7624		ldr r7, [pc, #+1572] ; 0x200002A9
300023C2  7038     		strb r0, [r7]

#87			JMPCN	$$LAB$12
(-) BOOL
300023C4  2800     		cmp r0, #0
300023C6  D009     		beq #18 ; 0x300023DC


#88			LD		curSeq {R:4$60}
(*) UNDEF
300023CA  F8DF 7628		ldr r7, [pc, #+1576] ; 0x200002B6
300023CE  F9B7 0000		ldrsh r0, [r7]

#89			EQ		10 {R:4$63}
(*) INT
300023D2  280A     		cmp r0, #10
300023D4  BF18 2000		nemov r0, #0
300023D8  BF08 2001		eqmov r0, #1

#90		$$LAB$12:
#91			ST		$$VAR$2
(*) BOOL
300023DC  F8DF 7618		ldr r7, [pc, #+1560] ; 0x200002B8
300023E0  7038     		strb r0, [r7]

#92			JMPCN	$$LAB$13
(-) BOOL
300023E2  2800     		cmp r0, #0
300023E4  D061     		beq #194 ; 0x300024AA


#93			(* $EXPR4$105 := cutFrontX + 50; *)
#94			LD		cutFrontX	{R:4$105}
(*) UNDEF
300023E8  F8DF 75E4		ldr r7, [pc, #+1508] ; 0x4844
300023EC  4638     		mov r0, r7

#95			ADD		50	{R:4$105}
(-) INT
300023EE  3032     		add r0, r0, #50

#96			ST		$EXPR4$105	{R:4$105}
(*) INT
300023F0  F8DF 76E8		ldr r7, [pc, #+1768] ; 0x20000B34
300023F4  8038     		strh r0, [r7]

#97			MOVE		$EXPR4$105,step0.XPOSIN {R:4$95}
(*) INT
300023F6  F8DF 76E4		ldr r7, [pc, #+1764] ; 0x20000B34
300023FA  F9B7 0000		ldrsh r0, [r7]
300023FE  F8DF 760C		ldr r7, [pc, #+1548] ; 0x200002C6
30002402  8038     		strh r0, [r7]

#98			(* $EXPR4$97 := cutPositionsY[pickIndex] - cutOffset; *)
#99			LD		cutPositionsY[pickIndex]	{R:4$97}
(*) UNDEF
30002404  F8DF 75F8		ldr r7, [pc, #+1528] ; 0x200002BA
30002408  F9B7 5000		ldrsh r5, [r7]
3000240C  F8DF 7620		ldr r7, [pc, #+1568] ; 0x200002E4
30002410  EB07 0745		add r7, r7, r5, lsl #1
30002414  F9B7 0000		ldrsh r0, [r7]

#100			SUB		cutOffset	{R:4$97}
(*) INT
30002418  F8DF 75A4		ldr r7, [pc, #+1444] ; 0x7B2
3000241C  463F     		mov r7, r7
3000241E  1BC0     		sub r0, r0, r7

#101			ST		$EXPR4$97	{R:4$97}
(*) INT
30002420  F8DF 76BC		ldr r7, [pc, #+1724] ; 0x20000B36
30002424  8038     		strh r0, [r7]

#102			MOVE		$EXPR4$97,step0.YPOSIN {R:4$95}
(*) INT
30002426  F8DF 76B8		ldr r7, [pc, #+1720] ; 0x20000B36
3000242A  F9B7 0000		ldrsh r0, [r7]
3000242E  F8DF 75E0		ldr r7, [pc, #+1504] ; 0x200002C8
30002432  8038     		strh r0, [r7]

#103			MOVE		ZTop,step0.ZPOSIN {R:4$95}
(*) INT
30002434  F8DF 7590		ldr r7, [pc, #+1424] ; 0x39D0
30002438  4638     		mov r0, r7
3000243A  F8DF 75D8		ldr r7, [pc, #+1496] ; 0x200002CA
3000243E  8038     		strh r0, [r7]

#104			MOVE		XPosAct,step0.XPOSACT {R:4$95}
(*) INT
30002440  F8DF 76BC		ldr r7, [pc, #+1724] ; 0x38000000
30002444  F9B7 0000		ldrsh r0, [r7]
30002448  F8DF 75CC		ldr r7, [pc, #+1484] ; 0x200002CC
3000244C  8038     		strh r0, [r7]

#105			MOVE		YPosAct,step0.YPOSACT {R:4$95}
(*) INT
3000244E  F8DF 76B4		ldr r7, [pc, #+1716] ; 0x38000002
30002452  F9B7 0000		ldrsh r0, [r7]
30002456  F8DF 75C4		ldr r7, [pc, #+1476] ; 0x200002CE
3000245A  8038     		strh r0, [r7]

#106			MOVE		ZPosAct,step0.ZPOSACT {R:4$95}
(*) INT
3000245C  F8DF 76A8		ldr r7, [pc, #+1704] ; 0x38000004
30002460  F9B7 0000		ldrsh r0, [r7]
30002464  F8DF 75B8		ldr r7, [pc, #+1464] ; 0x200002D0
30002468  8038     		strh r0, [r7]

#107			CAL		step0 {R:4$95}
(*) INT
3000246A  E92D 0021		stmdb sp!, { r0, r5 }
3000246E  F8DF 5598		ldr r5, [pc, #+1432] ; 0x200002C0
30002472  F8DF 4688		ldr r4, [pc, #+1672] ; 0x30001838
30002476  F044 0401		orr r4, r4, #1
3000247A  47A0     		blx r4
3000247C  E8BD 0021		ldmia sp!, { r0, r5 }

#108			MOVE		step0.XPOSOUT,XPos {R:4$95}
(*) INT
30002480  F8DF 75A0		ldr r7, [pc, #+1440] ; 0x200002D2
30002484  F9B7 0000		ldrsh r0, [r7]
30002488  F8DF 7684		ldr r7, [pc, #+1668] ; 0x38000204
3000248C  8038     		strh r0, [r7]

#109			MOVE		step0.YPOSOUT,YPos {R:4$95}
(*) INT
3000248E  F8DF 7598		ldr r7, [pc, #+1432] ; 0x200002D4
30002492  F9B7 0000		ldrsh r0, [r7]
30002496  F8DF 7680		ldr r7, [pc, #+1664] ; 0x3800020A
3000249A  8038     		strh r0, [r7]

#110			MOVE		step0.ZPOSOUT,ZPos {R:4$95}
(*) INT
3000249C  F8DF 758C		ldr r7, [pc, #+1420] ; 0x200002D6
300024A0  F9B7 0000		ldrsh r0, [r7]
300024A4  F8DF 7674		ldr r7, [pc, #+1652] ; 0x38000210
300024A8  8038     		strh r0, [r7]

#111		$$LAB$13:
#112			LD		$$VAR$2
(*) UNDEF
300024AA  F8DF 754C		ldr r7, [pc, #+1356] ; 0x200002B8
300024AE  7838     		ldrb r0, [r7]

#113			LD		$$VAR$2
(*) UNDEF
300024B0  F8DF 7544		ldr r7, [pc, #+1348] ; 0x200002B8
300024B4  7838     		ldrb r0, [r7]

#114			JMPCN	$$LAB$14
(-) BOOL
300024B6  2800     		cmp r0, #0
300024B8  D009     		beq #18 ; 0x300024CE


#115			LD		pickIndex {R:4$113}
(*) UNDEF
300024BC  F8DF 7540		ldr r7, [pc, #+1344] ; 0x200002BA
300024C0  F9B7 0000		ldrsh r0, [r7]

#116			EQ		9 {R:4$116}
(*) INT
300024C4  2809     		cmp r0, #9
300024C6  BF18 2000		nemov r0, #0
300024CA  BF08 2001		eqmov r0, #1

#117		$$LAB$14:
#118			ST		$$VAR$3
(*) BOOL
300024CE  F8DF 75E0		ldr r7, [pc, #+1504] ; 0x200007B8
300024D2  7038     		strb r0, [r7]

#119			JMPCN	$$LAB$15
(-) BOOL
300024D4  2800     		cmp r0, #0
300024D6  D004     		beq #8 ; 0x300024E2


#120			LD		20 {R:4$124}
(-) UNDEF
300024DA  2014     		mov r0, #20 ; 20

#121			ST		curSeq {R:4$123}
(*) USINT
300024DC  F8DF 7514		ldr r7, [pc, #+1300] ; 0x200002B6
300024E0  8038     		strh r0, [r7]

#122		$$LAB$15:
#123			LD		$$VAR$3
(*) UNDEF
300024E2  F8DF 75CC		ldr r7, [pc, #+1484] ; 0x200007B8
300024E6  7838     		ldrb r0, [r7]

#124		 
#125			(* Network 5 *)
#126			LD		auto {R:5$88}
(*) UNDEF
300024E8  F8DF 74F4		ldr r7, [pc, #+1268] ; 0x200002A8
300024EC  7838     		ldrb r0, [r7]

#127			AND		cutSeq {R:5$20}
(*) BOOL
300024EE  F8DF 74E4		ldr r7, [pc, #+1252] ; 0x200002A5
300024F2  783F     		ldrb r7, [r7]
300024F4  4038     		and r0, r0, r7

#128			ST		$$VAR$1
(*) BOOL
300024F6  F8DF 74EC		ldr r7, [pc, #+1260] ; 0x200002A9
300024FA  7038     		strb r0, [r7]

#129			JMPCN	$$LAB$16
(-) BOOL
300024FC  2800     		cmp r0, #0
300024FE  D009     		beq #18 ; 0x30002514


#130			LD		curSeq {R:5$60}
(*) UNDEF
30002502  F8DF 74F0		ldr r7, [pc, #+1264] ; 0x200002B6
30002506  F9B7 0000		ldrsh r0, [r7]

#131			EQ		20 {R:5$63}
(*) INT
3000250A  2814     		cmp r0, #20
3000250C  BF18 2000		nemov r0, #0
30002510  BF08 2001		eqmov r0, #1

#132		$$LAB$16:
#133			ST		$$VAR$2
(*) BOOL
30002514  F8DF 74E0		ldr r7, [pc, #+1248] ; 0x200002B8
30002518  7038     		strb r0, [r7]

#134			JMPCN	$$LAB$17
(-) BOOL
3000251A  2800     		cmp r0, #0
3000251C  D059     		beq #178 ; 0x300025D2


#135			MOVE		cutBackX,step1.XPOSIN {R:5$96}
(*) BOOL
30002520  F8DF 74A8		ldr r7, [pc, #+1192] ; 0x3CF0
30002524  4638     		mov r0, r7
30002526  F8DF 7510		ldr r7, [pc, #+1296] ; 0x20000302
3000252A  8038     		strh r0, [r7]

#136			(* $EXPR5$106 := cutPositionsY[pickIndex] - cutOffset; *)
#137			LD		cutPositionsY[pickIndex]	{R:5$106}
(*) UNDEF
3000252C  F8DF 74D0		ldr r7, [pc, #+1232] ; 0x200002BA
30002530  F9B7 5000		ldrsh r5, [r7]
30002534  F8DF 74F8		ldr r7, [pc, #+1272] ; 0x200002E4
30002538  EB07 0745		add r7, r7, r5, lsl #1
3000253C  F9B7 0000		ldrsh r0, [r7]

#138			SUB		cutOffset	{R:5$106}
(*) INT
30002540  F8DF 747C		ldr r7, [pc, #+1148] ; 0x7B2
30002544  463F     		mov r7, r7
30002546  1BC0     		sub r0, r0, r7

#139			ST		$EXPR5$106	{R:5$106}
(*) INT
30002548  F8DF 7598		ldr r7, [pc, #+1432] ; 0x20000B38
3000254C  8038     		strh r0, [r7]

#140			MOVE		$EXPR5$106,step1.YPOSIN {R:5$96}
(*) INT
3000254E  F8DF 7594		ldr r7, [pc, #+1428] ; 0x20000B38
30002552  F9B7 0000		ldrsh r0, [r7]
30002556  F8DF 74E4		ldr r7, [pc, #+1252] ; 0x20000304
3000255A  8038     		strh r0, [r7]

#141			MOVE		ZTop,step1.ZPOSIN {R:5$96}
(*) INT
3000255C  F8DF 7468		ldr r7, [pc, #+1128] ; 0x39D0
30002560  4638     		mov r0, r7
30002562  F8DF 74DC		ldr r7, [pc, #+1244] ; 0x20000306
30002566  8038     		strh r0, [r7]

#142			MOVE		XPosAct,step1.XPOSACT {R:5$96}
(*) INT
30002568  F8DF 7594		ldr r7, [pc, #+1428] ; 0x38000000
3000256C  F9B7 0000		ldrsh r0, [r7]
30002570  F8DF 74D0		ldr r7, [pc, #+1232] ; 0x20000308
30002574  8038     		strh r0, [r7]

#143			MOVE		YPosAct,step1.YPOSACT {R:5$96}
(*) INT
30002576  F8DF 758C		ldr r7, [pc, #+1420] ; 0x38000002
3000257A  F9B7 0000		ldrsh r0, [r7]
3000257E  F8DF 74C8		ldr r7, [pc, #+1224] ; 0x2000030A
30002582  8038     		strh r0, [r7]

#144			MOVE		ZPosAct,step1.ZPOSACT {R:5$96}
(*) INT
30002584  F8DF 7580		ldr r7, [pc, #+1408] ; 0x38000004
30002588  F9B7 0000		ldrsh r0, [r7]
3000258C  F8DF 74BC		ldr r7, [pc, #+1212] ; 0x2000030C
30002590  8038     		strh r0, [r7]

#145			CAL		step1 {R:5$96}
(*) INT
30002592  E92D 0021		stmdb sp!, { r0, r5 }
30002596  F8DF 549C		ldr r5, [pc, #+1180] ; 0x200002FC
3000259A  F8DF 4560		ldr r4, [pc, #+1376] ; 0x30001838
3000259E  F044 0401		orr r4, r4, #1
300025A2  47A0     		blx r4
300025A4  E8BD 0021		ldmia sp!, { r0, r5 }

#146			MOVE		step1.XPOSOUT,XPos {R:5$96}
(*) INT
300025A8  F8DF 74A4		ldr r7, [pc, #+1188] ; 0x2000030E
300025AC  F9B7 0000		ldrsh r0, [r7]
300025B0  F8DF 755C		ldr r7, [pc, #+1372] ; 0x38000204
300025B4  8038     		strh r0, [r7]

#147			MOVE		step1.YPOSOUT,YPos {R:5$96}
(*) INT
300025B6  F8DF 749C		ldr r7, [pc, #+1180] ; 0x20000310
300025BA  F9B7 0000		ldrsh r0, [r7]
300025BE  F8DF 7558		ldr r7, [pc, #+1368] ; 0x3800020A
300025C2  8038     		strh r0, [r7]

#148			MOVE		step1.ZPOSOUT,ZPos {R:5$96}
(*) INT
300025C4  F8DF 7490		ldr r7, [pc, #+1168] ; 0x20000312
300025C8  F9B7 0000		ldrsh r0, [r7]
300025CC  F8DF 754C		ldr r7, [pc, #+1356] ; 0x38000210
300025D0  8038     		strh r0, [r7]

#149		$$LAB$17:
#150			LD		$$VAR$2
(*) UNDEF
300025D2  F8DF 7424		ldr r7, [pc, #+1060] ; 0x200002B8
300025D6  7838     		ldrb r0, [r7]

#151		 
#152			(* Network 6 *)
#153			LD		auto {R:6$88}
(*) UNDEF
300025D8  F8DF 7404		ldr r7, [pc, #+1028] ; 0x200002A8
300025DC  7838     		ldrb r0, [r7]

#154			AND		cutSeq {R:6$20}
(*) BOOL
300025DE  F8DF 73F4		ldr r7, [pc, #+1012] ; 0x200002A5
300025E2  783F     		ldrb r7, [r7]
300025E4  4038     		and r0, r0, r7

#155			ST		$$VAR$1
(*) BOOL
300025E6  F8DF 73FC		ldr r7, [pc, #+1020] ; 0x200002A9
300025EA  7038     		strb r0, [r7]

#156			JMPCN	$$LAB$18
(-) BOOL
300025EC  2800     		cmp r0, #0
300025EE  D009     		beq #18 ; 0x30002604


#157			LD		curSeq {R:6$60}
(*) UNDEF
300025F2  F8DF 7400		ldr r7, [pc, #+1024] ; 0x200002B6
300025F6  F9B7 0000		ldrsh r0, [r7]

#158			EQ		30 {R:6$63}
(*) INT
300025FA  281E     		cmp r0, #30
300025FC  BF18 2000		nemov r0, #0
30002600  BF08 2001		eqmov r0, #1

#159		$$LAB$18:
#160			ST		$$VAR$2
(*) BOOL
30002604  F8DF 73F0		ldr r7, [pc, #+1008] ; 0x200002B8
30002608  7038     		strb r0, [r7]

#161			JMPCN	$$LAB$19
(-) BOOL
3000260A  2800     		cmp r0, #0
3000260C  D056     		beq #172 ; 0x300026BC


#162			MOVE		cutBackX,step2.XPOSIN {R:6$95}
(*) BOOL
30002610  F8DF 73B8		ldr r7, [pc, #+952] ; 0x3CF0
30002614  4638     		mov r0, r7
30002616  F8DF 7448		ldr r7, [pc, #+1096] ; 0x20000326
3000261A  8038     		strh r0, [r7]

#163			(* $EXPR6$106 := cutPositionsY[pickIndex] + 20; *)
#164			LD		cutPositionsY[pickIndex]	{R:6$106}
(*) UNDEF
3000261C  F8DF 73E0		ldr r7, [pc, #+992] ; 0x200002BA
30002620  F9B7 5000		ldrsh r5, [r7]
30002624  F8DF 7408		ldr r7, [pc, #+1032] ; 0x200002E4
30002628  EB07 0745		add r7, r7, r5, lsl #1
3000262C  F9B7 0000		ldrsh r0, [r7]

#165			ADD		20	{R:6$106}
(-) INT
30002630  3014     		add r0, r0, #20

#166			ST		$EXPR6$106	{R:6$106}
(*) INT
30002632  F8DF 74B4		ldr r7, [pc, #+1204] ; 0x20000B3A
30002636  8038     		strh r0, [r7]

#167			MOVE		$EXPR6$106,step2.YPOSIN {R:6$95}
(*) INT
30002638  F8DF 74AC		ldr r7, [pc, #+1196] ; 0x20000B3A
3000263C  F9B7 0000		ldrsh r0, [r7]
30002640  F8DF 7420		ldr r7, [pc, #+1056] ; 0x20000328
30002644  8038     		strh r0, [r7]

#168			MOVE		ZTop,step2.ZPOSIN {R:6$95}
(*) INT
30002646  F8DF 7380		ldr r7, [pc, #+896] ; 0x39D0
3000264A  4638     		mov r0, r7
3000264C  F8DF 7418		ldr r7, [pc, #+1048] ; 0x2000032A
30002650  8038     		strh r0, [r7]

#169			MOVE		XPosAct,step2.XPOSACT {R:6$95}
(*) INT
30002652  F8DF 74AC		ldr r7, [pc, #+1196] ; 0x38000000
30002656  F9B7 0000		ldrsh r0, [r7]
3000265A  F8DF 7410		ldr r7, [pc, #+1040] ; 0x2000032C
3000265E  8038     		strh r0, [r7]

#170			MOVE		YPosAct,step2.YPOSACT {R:6$95}
(*) INT
30002660  F8DF 74A0		ldr r7, [pc, #+1184] ; 0x38000002
30002664  F9B7 0000		ldrsh r0, [r7]
30002668  F8DF 7404		ldr r7, [pc, #+1028] ; 0x2000032E
3000266C  8038     		strh r0, [r7]

#171			MOVE		ZPosAct,step2.ZPOSACT {R:6$95}
(*) INT
3000266E  F8DF 7498		ldr r7, [pc, #+1176] ; 0x38000004
30002672  F9B7 0000		ldrsh r0, [r7]
30002676  F8DF 73FC		ldr r7, [pc, #+1020] ; 0x20000330
3000267A  8038     		strh r0, [r7]

#172			CAL		step2 {R:6$95}
(*) INT
3000267C  E92D 0021		stmdb sp!, { r0, r5 }
30002680  F8DF 53D8		ldr r5, [pc, #+984] ; 0x20000320
30002684  F8DF 4474		ldr r4, [pc, #+1140] ; 0x30001838
30002688  F044 0401		orr r4, r4, #1
3000268C  47A0     		blx r4
3000268E  E8BD 0021		ldmia sp!, { r0, r5 }

#173			MOVE		step2.XPOSOUT,XPos {R:6$95}
(*) INT
30002692  F8DF 73E4		ldr r7, [pc, #+996] ; 0x20000332
30002696  F9B7 0000		ldrsh r0, [r7]
3000269A  F8DF 7474		ldr r7, [pc, #+1140] ; 0x38000204
3000269E  8038     		strh r0, [r7]

#174			MOVE		step2.YPOSOUT,YPos {R:6$95}
(*) INT
300026A0  F8DF 73D8		ldr r7, [pc, #+984] ; 0x20000334
300026A4  F9B7 0000		ldrsh r0, [r7]
300026A8  F8DF 746C		ldr r7, [pc, #+1132] ; 0x3800020A
300026AC  8038     		strh r0, [r7]

#175			MOVE		step2.ZPOSOUT,ZPos {R:6$95}
(*) INT
300026AE  F8DF 73D0		ldr r7, [pc, #+976] ; 0x20000336
300026B2  F9B7 0000		ldrsh r0, [r7]
300026B6  F8DF 7464		ldr r7, [pc, #+1124] ; 0x38000210
300026BA  8038     		strh r0, [r7]

#176		$$LAB$19:
#177			LD		$$VAR$2
(*) UNDEF
300026BC  F8DF 7338		ldr r7, [pc, #+824] ; 0x200002B8
300026C0  7838     		ldrb r0, [r7]

#178		 
#179			(* Network 7 *)
#180			LD		auto {R:7$88}
(*) UNDEF
300026C2  F8DF 731C		ldr r7, [pc, #+796] ; 0x200002A8
300026C6  7838     		ldrb r0, [r7]

#181			AND		cutSeq {R:7$20}
(*) BOOL
300026C8  F8DF 7308		ldr r7, [pc, #+776] ; 0x200002A5
300026CC  783F     		ldrb r7, [r7]
300026CE  4038     		and r0, r0, r7

#182			ST		$$VAR$1
(*) BOOL
300026D0  F8DF 7310		ldr r7, [pc, #+784] ; 0x200002A9
300026D4  7038     		strb r0, [r7]

#183			JMPCN	$$LAB$20
(-) BOOL
300026D6  2800     		cmp r0, #0
300026D8  D009     		beq #18 ; 0x300026EE


#184			LD		curSeq {R:7$60}
(*) UNDEF
300026DC  F8DF 7314		ldr r7, [pc, #+788] ; 0x200002B6
300026E0  F9B7 0000		ldrsh r0, [r7]

#185			EQ		40 {R:7$63}
(*) INT
300026E4  2828     		cmp r0, #40
300026E6  BF18 2000		nemov r0, #0
300026EA  BF08 2001		eqmov r0, #1

#186		$$LAB$20:
#187			ST		$$VAR$2
(*) BOOL
300026EE  F8DF 7308		ldr r7, [pc, #+776] ; 0x200002B8
300026F2  7038     		strb r0, [r7]

#188			JMPCN	$$LAB$21
(-) BOOL
300026F4  2800     		cmp r0, #0
300026F6  D059     		beq #178 ; 0x300027AC


#189			MOVE		cutBackX,step3.XPOSIN {R:7$95}
(*) BOOL
300026FA  F8DF 72D0		ldr r7, [pc, #+720] ; 0x3CF0
300026FE  4638     		mov r0, r7
30002700  F8DF 7384		ldr r7, [pc, #+900] ; 0x2000034E
30002704  8038     		strh r0, [r7]

#190			(* $EXPR7$106 := cutPositionsY[pickIndex] - cutOffset; *)
#191			LD		cutPositionsY[pickIndex]	{R:7$106}
(*) UNDEF
30002706  F8DF 72F8		ldr r7, [pc, #+760] ; 0x200002BA
3000270A  F9B7 5000		ldrsh r5, [r7]
3000270E  F8DF 7320		ldr r7, [pc, #+800] ; 0x200002E4
30002712  EB07 0745		add r7, r7, r5, lsl #1
30002716  F9B7 0000		ldrsh r0, [r7]

#192			SUB		cutOffset	{R:7$106}
(*) INT
3000271A  F8DF 72A4		ldr r7, [pc, #+676] ; 0x7B2
3000271E  463F     		mov r7, r7
30002720  1BC0     		sub r0, r0, r7

#193			ST		$EXPR7$106	{R:7$106}
(*) INT
30002722  F8DF 73C8		ldr r7, [pc, #+968] ; 0x20000B3C
30002726  8038     		strh r0, [r7]

#194			MOVE		$EXPR7$106,step3.YPOSIN {R:7$95}
(*) INT
30002728  F8DF 73C0		ldr r7, [pc, #+960] ; 0x20000B3C
3000272C  F9B7 0000		ldrsh r0, [r7]
30002730  F8DF 7358		ldr r7, [pc, #+856] ; 0x20000350
30002734  8038     		strh r0, [r7]

#195			MOVE		ZTop,step3.ZPOSIN {R:7$95}
(*) INT
30002736  F8DF 7290		ldr r7, [pc, #+656] ; 0x39D0
3000273A  4638     		mov r0, r7
3000273C  F8DF 7350		ldr r7, [pc, #+848] ; 0x20000352
30002740  8038     		strh r0, [r7]

#196			MOVE		XPosAct,step3.XPOSACT {R:7$95}
(*) INT
30002742  F8DF 73BC		ldr r7, [pc, #+956] ; 0x38000000
30002746  F9B7 0000		ldrsh r0, [r7]
3000274A  F8DF 7348		ldr r7, [pc, #+840] ; 0x20000354
3000274E  8038     		strh r0, [r7]

#197			MOVE		YPosAct,step3.YPOSACT {R:7$95}
(*) INT
30002750  F8DF 73B0		ldr r7, [pc, #+944] ; 0x38000002
30002754  F9B7 0000		ldrsh r0, [r7]
30002758  F8DF 733C		ldr r7, [pc, #+828] ; 0x20000356
3000275C  8038     		strh r0, [r7]

#198			MOVE		ZPosAct,step3.ZPOSACT {R:7$95}
(*) INT
3000275E  F8DF 73A8		ldr r7, [pc, #+936] ; 0x38000004
30002762  F9B7 0000		ldrsh r0, [r7]
30002766  F8DF 7334		ldr r7, [pc, #+820] ; 0x20000358
3000276A  8038     		strh r0, [r7]

#199			CAL		step3 {R:7$95}
(*) INT
3000276C  E92D 0021		stmdb sp!, { r0, r5 }
30002770  F8DF 5310		ldr r5, [pc, #+784] ; 0x20000348
30002774  F8DF 4384		ldr r4, [pc, #+900] ; 0x30001838
30002778  F044 0401		orr r4, r4, #1
3000277C  47A0     		blx r4
3000277E  E8BD 0021		ldmia sp!, { r0, r5 }

#200			MOVE		step3.XPOSOUT,XPos {R:7$95}
(*) INT
30002782  F8DF 731C		ldr r7, [pc, #+796] ; 0x2000035A
30002786  F9B7 0000		ldrsh r0, [r7]
3000278A  F8DF 7384		ldr r7, [pc, #+900] ; 0x38000204
3000278E  8038     		strh r0, [r7]

#201			MOVE		step3.YPOSOUT,YPos {R:7$95}
(*) INT
30002790  F8DF 7310		ldr r7, [pc, #+784] ; 0x2000035C
30002794  F9B7 0000		ldrsh r0, [r7]
30002798  F8DF 737C		ldr r7, [pc, #+892] ; 0x3800020A
3000279C  8038     		strh r0, [r7]

#202			MOVE		step3.ZPOSOUT,ZPos {R:7$95}
(*) INT
3000279E  F8DF 7308		ldr r7, [pc, #+776] ; 0x2000035E
300027A2  F9B7 0000		ldrsh r0, [r7]
300027A6  F8DF 7374		ldr r7, [pc, #+884] ; 0x38000210
300027AA  8038     		strh r0, [r7]

#203		$$LAB$21:
#204			LD		$$VAR$2
(*) UNDEF
300027AC  F8DF 7248		ldr r7, [pc, #+584] ; 0x200002B8
300027B0  7838     		ldrb r0, [r7]

#205		 
#206			(* Network 8 *)
#207			LD		auto {R:8$88}
(*) UNDEF
300027B2  F8DF 722C		ldr r7, [pc, #+556] ; 0x200002A8
300027B6  7838     		ldrb r0, [r7]

#208			AND		cutSeq {R:8$20}
(*) BOOL
300027B8  F8DF 7218		ldr r7, [pc, #+536] ; 0x200002A5
300027BC  783F     		ldrb r7, [r7]
300027BE  4038     		and r0, r0, r7

#209			ST		$$VAR$1
(*) BOOL
300027C0  F8DF 7220		ldr r7, [pc, #+544] ; 0x200002A9
300027C4  7038     		strb r0, [r7]

#210			JMPCN	$$LAB$22
(-) BOOL
300027C6  2800     		cmp r0, #0
300027C8  D009     		beq #18 ; 0x300027DE


#211			LD		curSeq {R:8$60}
(*) UNDEF
300027CC  F8DF 7224		ldr r7, [pc, #+548] ; 0x200002B6
300027D0  F9B7 0000		ldrsh r0, [r7]

#212			EQ		50 {R:8$63}
(*) INT
300027D4  2832     		cmp r0, #50
300027D6  BF18 2000		nemov r0, #0
300027DA  BF08 2001		eqmov r0, #1

#213		$$LAB$22:
#214			ST		$$VAR$2
(*) BOOL
300027DE  F8DF 7218		ldr r7, [pc, #+536] ; 0x200002B8
300027E2  7038     		strb r0, [r7]

#215			JMPCN	$$LAB$23
(-) BOOL
300027E4  2800     		cmp r0, #0
300027E6  D061     		beq #194 ; 0x300028AC


#216			(* $EXPR8$97 := cutFrontX + 50; *)
#217			LD		cutFrontX	{R:8$97}
(*) UNDEF
300027EA  F8DF 71E4		ldr r7, [pc, #+484] ; 0x4844
300027EE  4638     		mov r0, r7

#218			ADD		50	{R:8$97}
(-) INT
300027F0  3032     		add r0, r0, #50

#219			ST		$EXPR8$97	{R:8$97}
(*) INT
300027F2  F8DF 72FC		ldr r7, [pc, #+764] ; 0x20000B3E
300027F6  8038     		strh r0, [r7]

#220			MOVE		$EXPR8$97,step4.XPOSIN {R:8$96}
(*) INT
300027F8  F8DF 72F4		ldr r7, [pc, #+756] ; 0x20000B3E
300027FC  F9B7 0000		ldrsh r0, [r7]
30002800  F8DF 72B4		ldr r7, [pc, #+692] ; 0x200007C6
30002804  8038     		strh r0, [r7]

#221			(* $EXPR8$98 := cutPositionsY[pickIndex] - cutOffset; *)
#222			LD		cutPositionsY[pickIndex]	{R:8$98}
(*) UNDEF
30002806  F8DF 71F8		ldr r7, [pc, #+504] ; 0x200002BA
3000280A  F9B7 5000		ldrsh r5, [r7]
3000280E  F8DF 7220		ldr r7, [pc, #+544] ; 0x200002E4
30002812  EB07 0745		add r7, r7, r5, lsl #1
30002816  F9B7 0000		ldrsh r0, [r7]

#223			SUB		cutOffset	{R:8$98}
(*) INT
3000281A  F8DF 71A4		ldr r7, [pc, #+420] ; 0x7B2
3000281E  463F     		mov r7, r7
30002820  1BC0     		sub r0, r0, r7

#224			ST		$EXPR8$98	{R:8$98}
(*) INT
30002822  F8DF 72D0		ldr r7, [pc, #+720] ; 0x20000B40
30002826  8038     		strh r0, [r7]

#225			MOVE		$EXPR8$98,step4.YPOSIN {R:8$96}
(*) INT
30002828  F8DF 72C8		ldr r7, [pc, #+712] ; 0x20000B40
3000282C  F9B7 0000		ldrsh r0, [r7]
30002830  F8DF 7288		ldr r7, [pc, #+648] ; 0x200007C8
30002834  8038     		strh r0, [r7]

#226			MOVE		ZTop,step4.ZPOSIN {R:8$96}
(*) INT
30002836  F8DF 7190		ldr r7, [pc, #+400] ; 0x39D0
3000283A  4638     		mov r0, r7
3000283C  F8DF 7280		ldr r7, [pc, #+640] ; 0x200007CA
30002840  8038     		strh r0, [r7]

#227			MOVE		XPosAct,step4.XPOSACT {R:8$96}
(*) INT
30002842  F8DF 72BC		ldr r7, [pc, #+700] ; 0x38000000
30002846  F9B7 0000		ldrsh r0, [r7]
3000284A  F8DF 7278		ldr r7, [pc, #+632] ; 0x200007CC
3000284E  8038     		strh r0, [r7]

#228			MOVE		YPosAct,step4.YPOSACT {R:8$96}
(*) INT
30002850  F8DF 72B0		ldr r7, [pc, #+688] ; 0x38000002
30002854  F9B7 0000		ldrsh r0, [r7]
30002858  F8DF 726C		ldr r7, [pc, #+620] ; 0x200007CE
3000285C  8038     		strh r0, [r7]

#229			MOVE		ZPosAct,step4.ZPOSACT {R:8$96}
(*) INT
3000285E  F8DF 72A8		ldr r7, [pc, #+680] ; 0x38000004
30002862  F9B7 0000		ldrsh r0, [r7]
30002866  F8DF 7264		ldr r7, [pc, #+612] ; 0x200007D0
3000286A  8038     		strh r0, [r7]

#230			CAL		step4 {R:8$96}
(*) INT
3000286C  E92D 0021		stmdb sp!, { r0, r5 }
30002870  F8DF 5240		ldr r5, [pc, #+576] ; 0x200007C0
30002874  F8DF 4284		ldr r4, [pc, #+644] ; 0x30001838
30002878  F044 0401		orr r4, r4, #1
3000287C  47A0     		blx r4
3000287E  E8BD 0021		ldmia sp!, { r0, r5 }

#231			MOVE		step4.XPOSOUT,XPos {R:8$96}
(*) INT
30002882  F8DF 724C		ldr r7, [pc, #+588] ; 0x200007D2
30002886  F9B7 0000		ldrsh r0, [r7]
3000288A  F8DF 7284		ldr r7, [pc, #+644] ; 0x38000204
3000288E  8038     		strh r0, [r7]

#232			MOVE		step4.YPOSOUT,YPos {R:8$96}
(*) INT
30002890  F8DF 7240		ldr r7, [pc, #+576] ; 0x200007D4
30002894  F9B7 0000		ldrsh r0, [r7]
30002898  F8DF 727C		ldr r7, [pc, #+636] ; 0x3800020A
3000289C  8038     		strh r0, [r7]

#233			MOVE		step4.ZPOSOUT,ZPos {R:8$96}
(*) INT
3000289E  F8DF 7238		ldr r7, [pc, #+568] ; 0x200007D6
300028A2  F9B7 0000		ldrsh r0, [r7]
300028A6  F8DF 7274		ldr r7, [pc, #+628] ; 0x38000210
300028AA  8038     		strh r0, [r7]

#234		$$LAB$23:
#235			LD		$$VAR$2
(*) UNDEF
300028AC  F8DF 7148		ldr r7, [pc, #+328] ; 0x200002B8
300028B0  7838     		ldrb r0, [r7]

#236			LD		$$VAR$2
(*) UNDEF
300028B2  F8DF 7144		ldr r7, [pc, #+324] ; 0x200002B8
300028B6  7838     		ldrb r0, [r7]

#237			JMPCN	$$LAB$24
(-) BOOL
300028B8  2800     		cmp r0, #0
300028BA  D009     		beq #18 ; 0x300028D0


#238			LD		pickIndex {R:8$128}
(*) UNDEF
300028BE  F8DF 7140		ldr r7, [pc, #+320] ; 0x200002BA
300028C2  F9B7 0000		ldrsh r0, [r7]

#239			EQ		9 {R:8$131}
(*) INT
300028C6  2809     		cmp r0, #9
300028C8  BF18 2000		nemov r0, #0
300028CC  BF08 2001		eqmov r0, #1

#240		$$LAB$24:
#241			ST		$$VAR$3
(*) BOOL
300028D0  F8DF 71DC		ldr r7, [pc, #+476] ; 0x200007B8
300028D4  7038     		strb r0, [r7]

#242			JMPCN	$$LAB$25
(-) BOOL
300028D6  2800     		cmp r0, #0
300028D8  D004     		beq #8 ; 0x300028E4


#243			LD		60 {R:8$126}
(-) UNDEF
300028DC  203C     		mov r0, #60 ; 60

#244			ST		curSeq {R:8$125}
(*) USINT
300028DE  F8DF 7114		ldr r7, [pc, #+276] ; 0x200002B6
300028E2  8038     		strh r0, [r7]

#245		$$LAB$25:
#246			LD		$$VAR$3
(*) UNDEF
300028E4  F8DF 71C8		ldr r7, [pc, #+456] ; 0x200007B8
300028E8  7838     		ldrb r0, [r7]

#247		 
#248			(* Network 9 *)
#249			LD		auto {R:9$17}
(*) UNDEF
300028EA  F8DF 70F4		ldr r7, [pc, #+244] ; 0x200002A8
300028EE  7838     		ldrb r0, [r7]

#250			AND		cutSeq {R:9$18}
(*) BOOL
300028F0  F8DF 70E0		ldr r7, [pc, #+224] ; 0x200002A5
300028F4  783F     		ldrb r7, [r7]
300028F6  4038     		and r0, r0, r7

#251			ST		$$VAR$1
(*) BOOL
300028F8  F8DF 70E8		ldr r7, [pc, #+232] ; 0x200002A9
300028FC  7038     		strb r0, [r7]

#252			JMPCN	$$LAB$26
(-) BOOL
300028FE  2800     		cmp r0, #0
30002900  D00C     		beq #24 ; 0x3000291C


#253			LD		curSeq {R:9$24}
(*) UNDEF
30002904  F8DF 70EC		ldr r7, [pc, #+236] ; 0x200002B6
30002908  F9B7 0000		ldrsh r0, [r7]

#254			EQ		60 {R:9$27}
(*) INT
3000290C  283C     		cmp r0, #60
3000290E  BF18 2000		nemov r0, #0
30002912  BF08 2001		eqmov r0, #1

#255			ST		cmplt {R:9$37}
(*) BOOL
30002916  F8DF 70E4		ldr r7, [pc, #+228] ; 0x200002B9
3000291A  7038     		strb r0, [r7]

#256		$$LAB$26:
#257			LD		$$VAR$1
(*) UNDEF
3000291C  F8DF 70C4		ldr r7, [pc, #+196] ; 0x200002A9
30002920  7838     		ldrb r0, [r7]

#258		 
#259			(* Network 10 *)
#260			LD		auto {R:10$2}
(*) UNDEF
30002922  F8DF 70BC		ldr r7, [pc, #+188] ; 0x200002A8
30002926  7838     		ldrb r0, [r7]

#261			AND		cutSeq {R:10$17}
(*) BOOL
30002928  F8DF 70A8		ldr r7, [pc, #+168] ; 0x200002A5
3000292C  783F     		ldrb r7, [r7]
3000292E  4038     		and r0, r0, r7

#262			AND		cmplt {R:10$19}
(*) BOOL
30002930  F8DF 70C8		ldr r7, [pc, #+200] ; 0x200002B9
30002934  783F     		ldrb r7, [r7]
30002936  4038     		and r0, r0, r7

#263			ST		$$VAR$1
(*) BOOL
30002938  F8DF 70A8		ldr r7, [pc, #+168] ; 0x200002A9
3000293C  7038     		strb r0, [r7]

#264			R		cutSeq {R:10$4}
(*) BOOL
3000293E  2800     		cmp r0, #0
30002940  D009     		beq #0x000012
30002942  B082     		sub sp, sp, #8
30002944  F8CD 0000		str r0, [sp]
30002948  2000     		mov r0, #0
3000294A  F8DF 7088		ldr r7, [pc, #+136] ; 0x200002A5
3000294E  7038     		strb r0, [r7]
30002950  F8DD 0000		ldr r0, [sp]
30002954  B002     		add sp, sp, #8

#265			LD		$$VAR$1
(*) UNDEF
30002956  F8DF 708C		ldr r7, [pc, #+140] ; 0x200002A9
3000295A  7838     		ldrb r0, [r7]

#266			JMPCN	$$LAB$27
(-) BOOL
3000295C  2800     		cmp r0, #0
3000295E  D007     		beq #14 ; 0x30002970


#267			LD		moveSpeed {R:10$9}
(*) UNDEF
30002962  F8DF 7148		ldr r7, [pc, #+328] ; 0x2000036C
30002966  F9B7 0000		ldrsh r0, [r7]

#268			ST		XSpeed {R:10$10}
(*) INT
3000296A  F8DF 71A0		ldr r7, [pc, #+416] ; 0x38000202
3000296E  8038     		strh r0, [r7]

#269		$$LAB$27:
#270			LD		$$VAR$1
(*) UNDEF
30002970  F8DF 7070		ldr r7, [pc, #+112] ; 0x200002A9
30002974  7838     		ldrb r0, [r7]

#271			LD		$$VAR$1
(*) UNDEF
30002976  F8DF 706C		ldr r7, [pc, #+108] ; 0x200002A9
3000297A  7838     		ldrb r0, [r7]

#272			JMPCN	$$LAB$28
(-) BOOL
3000297C  2800     		cmp r0, #0
3000297E  D007     		beq #14 ; 0x30002990


#273			LD		moveSpeed {R:10$14}
(*) UNDEF
30002982  F8DF 7128		ldr r7, [pc, #+296] ; 0x2000036C
30002986  F9B7 0000		ldrsh r0, [r7]

#274			ST		YSpeed {R:10$15}
(*) INT
3000298A  F8DF 7188		ldr r7, [pc, #+392] ; 0x38000208
3000298E  8038     		strh r0, [r7]

#275		$$LAB$28:
#276			LD		$$VAR$1
(*) UNDEF
30002990  F8DF 7050		ldr r7, [pc, #+80] ; 0x200002A9
30002994  7838     		ldrb r0, [r7]

#277			LD		$$VAR$1
(*) UNDEF
30002996  F8DF 704C		ldr r7, [pc, #+76] ; 0x200002A9
3000299A  7838     		ldrb r0, [r7]

#278			JMPCN	$$LAB$29
(-) BOOL
3000299C  2800     		cmp r0, #0
3000299E  D008     		beq #16 ; 0x300029B2


#279			LD		0.0 {R:10$25}
(*) UNDEF
300029A2  F8DF 0018		ldr r0, [pc, #+24] ; 0x0 = 0.000000
300029A6  EE00 0A10		fmsr s0, r0

#280			ST		laserPWM {R:10$24}
(*) REAL
300029AA  F8DF 714C		ldr r7, [pc, #+332] ; 0x240206F4
300029AE  ED87 0A00		fsts s0, [r7]

#281		$$LAB$29:
#282			LD		$$VAR$1
(*) UNDEF
300029B2  F8DF 7030		ldr r7, [pc, #+48] ; 0x200002A9
300029B6  7838     		ldrb r0, [r7]

300029B8  E0B2     		b #356

300029BC  00000000		; 0x00000000
300029C0  000007B2		; 0x000007B2
300029C4  00001838		; 0x00001838
300029C8  000039D0		; 0x000039D0
300029CC  00003CF0		; 0x00003CF0
300029D0  00004844		; 0x00004844
300029D4  200002A5		; 0x200002A5
300029D8  200002A6		; 0x200002A6
300029DC  200002A7		; 0x200002A7
300029E0  200002A8		; 0x200002A8
300029E4  200002A9		; 0x200002A9
300029E8  200002AA		; 0x200002AA
300029EC  200002AC		; 0x200002AC
300029F0  200002B4		; 0x200002B4
300029F4  200002B6		; 0x200002B6
300029F8  200002B8		; 0x200002B8
300029FC  200002B9		; 0x200002B9
30002A00  200002BA		; 0x200002BA
30002A04  200002BC		; 0x200002BC
30002A08  200002C0		; 0x200002C0
30002A0C  200002C6		; 0x200002C6
30002A10  200002C8		; 0x200002C8
30002A14  200002CA		; 0x200002CA
30002A18  200002CC		; 0x200002CC
30002A1C  200002CE		; 0x200002CE
30002A20  200002D0		; 0x200002D0
30002A24  200002D2		; 0x200002D2
30002A28  200002D4		; 0x200002D4
30002A2C  200002D6		; 0x200002D6
30002A30  200002E4		; 0x200002E4
30002A34  200002FC		; 0x200002FC
30002A38  20000302		; 0x20000302
30002A3C  20000304		; 0x20000304
30002A40  20000306		; 0x20000306
30002A44  20000308		; 0x20000308
30002A48  2000030A		; 0x2000030A
30002A4C  2000030C		; 0x2000030C
30002A50  2000030E		; 0x2000030E
30002A54  20000310		; 0x20000310
30002A58  20000312		; 0x20000312
30002A5C  20000320		; 0x20000320
30002A60  20000326		; 0x20000326
30002A64  20000328		; 0x20000328
30002A68  2000032A		; 0x2000032A
30002A6C  2000032C		; 0x2000032C
30002A70  2000032E		; 0x2000032E
30002A74  20000330		; 0x20000330
30002A78  20000332		; 0x20000332
30002A7C  20000334		; 0x20000334
30002A80  20000336		; 0x20000336
30002A84  20000348		; 0x20000348
30002A88  2000034E		; 0x2000034E
30002A8C  20000350		; 0x20000350
30002A90  20000352		; 0x20000352
30002A94  20000354		; 0x20000354
30002A98  20000356		; 0x20000356
30002A9C  20000358		; 0x20000358
30002AA0  2000035A		; 0x2000035A
30002AA4  2000035C		; 0x2000035C
30002AA8  2000035E		; 0x2000035E
30002AAC  2000036C		; 0x2000036C
30002AB0  200007B8		; 0x200007B8
30002AB4  200007C0		; 0x200007C0
30002AB8  200007C6		; 0x200007C6
30002ABC  200007C8		; 0x200007C8
30002AC0  200007CA		; 0x200007CA
30002AC4  200007CC		; 0x200007CC
30002AC8  200007CE		; 0x200007CE
30002ACC  200007D0		; 0x200007D0
30002AD0  200007D2		; 0x200007D2
30002AD4  200007D4		; 0x200007D4
30002AD8  200007D6		; 0x200007D6
30002ADC  20000B34		; 0x20000B34
30002AE0  20000B36		; 0x20000B36
30002AE4  20000B38		; 0x20000B38
30002AE8  20000B3A		; 0x20000B3A
30002AEC  20000B3C		; 0x20000B3C
30002AF0  20000B3E		; 0x20000B3E
30002AF4  20000B40		; 0x20000B40
30002AF8  FFFFFFFF		; 0x240206F4
30002AFC  30001838		; 0x30001838
30002B00  FFFFFFFF		; 0x38000000
30002B04  FFFFFFFF		; 0x38000002
30002B08  FFFFFFFF		; 0x38000004
30002B0C  FFFFFFFF		; 0x38000202
30002B10  FFFFFFFF		; 0x38000204
30002B14  FFFFFFFF		; 0x38000208
30002B18  FFFFFFFF		; 0x3800020A
30002B1C  FFFFFFFF		; 0x38000210

END_PROGRAM
**************************************************
	List program: Pick_SEQ
**************************************************

PROGRAM Pick_SEQ

        VAR
POS0 : INT := 4000;
SPEEDY : INT := 450;
POS1 : INT := 12000;
step0 : StepperSEQ;
step1 : StepperSEQ;
step2 : StepperSEQ;
step3 : StepperSEQ;
step4 : StepperSEQ;
pickOffsetY : INT := 2100;
disableA : TON;
timEnableA : BOOL;
step5 : StepperSEQ;
step6 : StepperSEQ;
	END_VAR

        VAR CONSTANT
pickClearanceZ : INT := 10000;
pickPositionX : INT := 7950;
	END_VAR

END_PROGRAM

#0			{SRC:Pick_SEQ}
#1		 
#2		  
#3			(* Network 1 *)
#4			LD		auto {R:1$95}
(*) UNDEF
30002B20  F8DF 7814		ldr r7, [pc, #+2068] ; 0x200002A8
30002B24  7838     		ldrb r0, [r7]

#5			AND		pickSeq {R:1$91}
(*) BOOL
30002B26  F8DF 7824		ldr r7, [pc, #+2084] ; 0x2000039B
30002B2A  783F     		ldrb r7, [r7]
30002B2C  4038     		and r0, r0, r7

#6			ST		$$VAR$1
(*) BOOL
30002B2E  F8DF 7818		ldr r7, [pc, #+2072] ; 0x2000039A
30002B32  7038     		strb r0, [r7]

#7			JMPCN	$$LAB$1
(-) BOOL
30002B34  2800     		cmp r0, #0
30002B36  D009     		beq #18 ; 0x30002B4C


#8			LD		curSeq {R:1$60}
(*) UNDEF
30002B3A  F8DF 7800		ldr r7, [pc, #+2048] ; 0x200002B6
30002B3E  F9B7 0000		ldrsh r0, [r7]

#9			EQ		10 {R:1$63}
(*) INT
30002B42  280A     		cmp r0, #10
30002B44  BF18 2000		nemov r0, #0
30002B48  BF08 2001		eqmov r0, #1

#10		$$LAB$1:
#11			ST		$$VAR$2
(*) BOOL
30002B4C  F8DF 7800		ldr r7, [pc, #+2048] ; 0x200003B0
30002B50  7038     		strb r0, [r7]

#12			JMPCN	$$LAB$2
(-) BOOL
30002B52  2800     		cmp r0, #0
30002B54  D009     		beq #18 ; 0x30002B6A


#13			LD		pickIndex {R:1$114}
(*) UNDEF
30002B58  F8DF 77E8		ldr r7, [pc, #+2024] ; 0x200002BA
30002B5C  F9B7 0000		ldrsh r0, [r7]

#14			LE		1 {R:1$118}
(*) INT
30002B60  2801     		cmp r0, #1
30002B62  BFC8 2000		gtmov r0, #0
30002B66  BFD8 2001		lemov r0, #1

#15		$$LAB$2:
#16			ST		$$VAR$3
(*) BOOL
30002B6A  F8DF 77E8		ldr r7, [pc, #+2024] ; 0x200003B1
30002B6E  7038     		strb r0, [r7]

#17			JMPCN	$$LAB$3
(-) BOOL
30002B70  2800     		cmp r0, #0
30002B72  D04E     		beq #156 ; 0x30002C12


#18			MOVE		pickPositionX,step0.XPOSIN {R:1$119}
(*) BOOL
30002B76  F8DF 77B0		ldr r7, [pc, #+1968] ; 0x1F0E
30002B7A  4638     		mov r0, r7
30002B7C  F8DF 77E0		ldr r7, [pc, #+2016] ; 0x200003BA
30002B80  8038     		strh r0, [r7]

#19			MOVE		19000,step0.YPOSIN {R:1$119}
(*) INT
30002B82  F8DF 77B0		ldr r7, [pc, #+1968] ; 0x4A38
30002B86  4638     		mov r0, r7
30002B88  F8DF 77D8		ldr r7, [pc, #+2008] ; 0x200003BC
30002B8C  B082     		sub sp, sp, #8
30002B8E  F8CD 0000		str r0, [sp]
30002B92  B200     		sxth r0, r0
30002B94  8038     		strh r0, [r7]
30002B96  F8DD 0000		ldr r0, [sp]
30002B9A  B002     		add sp, sp, #8

#20			MOVE		ZTop,step0.ZPOSIN {R:1$119}
(*) UINT
30002B9C  F8DF 7790		ldr r7, [pc, #+1936] ; 0x39D0
30002BA0  4638     		mov r0, r7
30002BA2  F8DF 77C4		ldr r7, [pc, #+1988] ; 0x200003BE
30002BA6  8038     		strh r0, [r7]

#21			MOVE		XPosAct,step0.XPOSACT {R:1$119}
(*) INT
30002BA8  F8DF 78E4		ldr r7, [pc, #+2276] ; 0x38000000
30002BAC  F9B7 0000		ldrsh r0, [r7]
30002BB0  F8DF 77B8		ldr r7, [pc, #+1976] ; 0x200003C0
30002BB4  8038     		strh r0, [r7]

#22			MOVE		YPosAct,step0.YPOSACT {R:1$119}
(*) INT
30002BB6  F8DF 78DC		ldr r7, [pc, #+2268] ; 0x38000002
30002BBA  F9B7 0000		ldrsh r0, [r7]
30002BBE  F8DF 77B0		ldr r7, [pc, #+1968] ; 0x200003C2
30002BC2  8038     		strh r0, [r7]

#23			MOVE		ZPosAct,step0.ZPOSACT {R:1$119}
(*) INT
30002BC4  F8DF 78D0		ldr r7, [pc, #+2256] ; 0x38000004
30002BC8  F9B7 0000		ldrsh r0, [r7]
30002BCC  F8DF 77A4		ldr r7, [pc, #+1956] ; 0x200003C4
30002BD0  8038     		strh r0, [r7]

#24			CAL		step0 {R:1$119}
(*) INT
30002BD2  E92D 0021		stmdb sp!, { r0, r5 }
30002BD6  F8DF 5784		ldr r5, [pc, #+1924] ; 0x200003B4
30002BDA  F8DF 48B0		ldr r4, [pc, #+2224] ; 0x30001838
30002BDE  F044 0401		orr r4, r4, #1
30002BE2  47A0     		blx r4
30002BE4  E8BD 0021		ldmia sp!, { r0, r5 }

#25			MOVE		step0.XPOSOUT,XPos {R:1$119}
(*) INT
30002BE8  F8DF 778C		ldr r7, [pc, #+1932] ; 0x200003C6
30002BEC  F9B7 0000		ldrsh r0, [r7]
30002BF0  F8DF 78A8		ldr r7, [pc, #+2216] ; 0x38000204
30002BF4  8038     		strh r0, [r7]

#26			MOVE		step0.YPOSOUT,YPos {R:1$119}
(*) INT
30002BF6  F8DF 7784		ldr r7, [pc, #+1924] ; 0x200003C8
30002BFA  F9B7 0000		ldrsh r0, [r7]
30002BFE  F8DF 78A0		ldr r7, [pc, #+2208] ; 0x3800020A
30002C02  8038     		strh r0, [r7]

#27			MOVE		step0.ZPOSOUT,ZPos {R:1$119}
(*) INT
30002C04  F8DF 7778		ldr r7, [pc, #+1912] ; 0x200003CA
30002C08  F9B7 0000		ldrsh r0, [r7]
30002C0C  F8DF 7894		ldr r7, [pc, #+2196] ; 0x38000210
30002C10  8038     		strh r0, [r7]

#28		$$LAB$3:
#29			LD		$$VAR$3
(*) UNDEF
30002C12  F8DF 7740		ldr r7, [pc, #+1856] ; 0x200003B1
30002C16  7838     		ldrb r0, [r7]

#30		 
#31			(* Network 2 *)
#32			LD		auto {R:2$95}
(*) UNDEF
30002C18  F8DF 771C		ldr r7, [pc, #+1820] ; 0x200002A8
30002C1C  7838     		ldrb r0, [r7]

#33			AND		pickSeq {R:2$91}
(*) BOOL
30002C1E  F8DF 772C		ldr r7, [pc, #+1836] ; 0x2000039B
30002C22  783F     		ldrb r7, [r7]
30002C24  4038     		and r0, r0, r7

#34			ST		$$VAR$1
(*) BOOL
30002C26  F8DF 7720		ldr r7, [pc, #+1824] ; 0x2000039A
30002C2A  7038     		strb r0, [r7]

#35			JMPCN	$$LAB$4
(-) BOOL
30002C2C  2800     		cmp r0, #0
30002C2E  D009     		beq #18 ; 0x30002C44


#36			LD		curSeq {R:2$60}
(*) UNDEF
30002C32  F8DF 7708		ldr r7, [pc, #+1800] ; 0x200002B6
30002C36  F9B7 0000		ldrsh r0, [r7]

#37			EQ		10 {R:2$63}
(*) INT
30002C3A  280A     		cmp r0, #10
30002C3C  BF18 2000		nemov r0, #0
30002C40  BF08 2001		eqmov r0, #1

#38		$$LAB$4:
#39			ST		$$VAR$2
(*) BOOL
30002C44  F8DF 7708		ldr r7, [pc, #+1800] ; 0x200003B0
30002C48  7038     		strb r0, [r7]

#40			JMPCN	$$LAB$5
(-) BOOL
30002C4A  2800     		cmp r0, #0
30002C4C  D009     		beq #18 ; 0x30002C62


#41			LD		pickIndex {R:2$114}
(*) UNDEF
30002C50  F8DF 76F0		ldr r7, [pc, #+1776] ; 0x200002BA
30002C54  F9B7 0000		ldrsh r0, [r7]

#42			GE		2 {R:2$117}
(*) INT
30002C58  2802     		cmp r0, #2
30002C5A  BFB8 2000		ltmov r0, #0
30002C5E  BFA8 2001		gemov r0, #1

#43		$$LAB$5:
#44			ST		$$VAR$3
(*) BOOL
30002C62  F8DF 76F0		ldr r7, [pc, #+1776] ; 0x200003B1
30002C66  7038     		strb r0, [r7]

#45			JMPCN	$$LAB$6
(-) BOOL
30002C68  2800     		cmp r0, #0
30002C6A  D05A     		beq #180 ; 0x30002D22


#46			MOVE		pickPositionX,step1.XPOSIN {R:2$118}
(*) BOOL
30002C6E  F8DF 76B8		ldr r7, [pc, #+1720] ; 0x1F0E
30002C72  4638     		mov r0, r7
30002C74  F8DF 7710		ldr r7, [pc, #+1808] ; 0x200003DE
30002C78  8038     		strh r0, [r7]

#47			(* $EXPR2$120 := pickPositionsY[pickIndex] + pickOffsetY; *)
#48			LD		pickPositionsY[pickIndex]	{R:2$120}
(*) UNDEF
30002C7A  F8DF 76C8		ldr r7, [pc, #+1736] ; 0x200002BA
30002C7E  F9B7 5000		ldrsh r5, [r7]
30002C82  F8DF 7804		ldr r7, [pc, #+2052] ; 0x300000C0
30002C86  EB07 0745		add r7, r7, r5, lsl #1
30002C8A  F9B7 0000		ldrsh r0, [r7]

#49			ADD		pickOffsetY	{R:2$120}
(*) INT
30002C8E  F8DF 76C8		ldr r7, [pc, #+1736] ; 0x200003B2
30002C92  F9B7 7000		ldrsh r7, [r7]
30002C96  19C0     		add r0, r0, r7

#50			ST		$EXPR2$120	{R:2$120}
(*) INT
30002C98  F8DF 77DC		ldr r7, [pc, #+2012] ; 0x20000B44
30002C9C  8038     		strh r0, [r7]

#51			MOVE		$EXPR2$120,step1.YPOSIN {R:2$118}
(*) INT
30002C9E  F8DF 77D8		ldr r7, [pc, #+2008] ; 0x20000B44
30002CA2  F9B7 0000		ldrsh r0, [r7]
30002CA6  F8DF 76E4		ldr r7, [pc, #+1764] ; 0x200003E0
30002CAA  8038     		strh r0, [r7]

#52			MOVE		ZTop,step1.ZPOSIN {R:2$118}
(*) INT
30002CAC  F8DF 7680		ldr r7, [pc, #+1664] ; 0x39D0
30002CB0  4638     		mov r0, r7
30002CB2  F8DF 76DC		ldr r7, [pc, #+1756] ; 0x200003E2
30002CB6  8038     		strh r0, [r7]

#53			MOVE		XPosAct,step1.XPOSACT {R:2$118}
(*) INT
30002CB8  F8DF 77D4		ldr r7, [pc, #+2004] ; 0x38000000
30002CBC  F9B7 0000		ldrsh r0, [r7]
30002CC0  F8DF 76D0		ldr r7, [pc, #+1744] ; 0x200003E4
30002CC4  8038     		strh r0, [r7]

#54			MOVE		YPosAct,step1.YPOSACT {R:2$118}
(*) INT
30002CC6  F8DF 77CC		ldr r7, [pc, #+1996] ; 0x38000002
30002CCA  F9B7 0000		ldrsh r0, [r7]
30002CCE  F8DF 76C8		ldr r7, [pc, #+1736] ; 0x200003E6
30002CD2  8038     		strh r0, [r7]

#55			MOVE		ZPosAct,step1.ZPOSACT {R:2$118}
(*) INT
30002CD4  F8DF 77C0		ldr r7, [pc, #+1984] ; 0x38000004
30002CD8  F9B7 0000		ldrsh r0, [r7]
30002CDC  F8DF 76BC		ldr r7, [pc, #+1724] ; 0x200003E8
30002CE0  8038     		strh r0, [r7]

#56			CAL		step1 {R:2$118}
(*) INT
30002CE2  E92D 0021		stmdb sp!, { r0, r5 }
30002CE6  F8DF 569C		ldr r5, [pc, #+1692] ; 0x200003D8
30002CEA  F8DF 47A0		ldr r4, [pc, #+1952] ; 0x30001838
30002CEE  F044 0401		orr r4, r4, #1
30002CF2  47A0     		blx r4
30002CF4  E8BD 0021		ldmia sp!, { r0, r5 }

#57			MOVE		step1.XPOSOUT,XPos {R:2$118}
(*) INT
30002CF8  F8DF 76A4		ldr r7, [pc, #+1700] ; 0x200003EA
30002CFC  F9B7 0000		ldrsh r0, [r7]
30002D00  F8DF 7798		ldr r7, [pc, #+1944] ; 0x38000204
30002D04  8038     		strh r0, [r7]

#58			MOVE		step1.YPOSOUT,YPos {R:2$118}
(*) INT
30002D06  F8DF 769C		ldr r7, [pc, #+1692] ; 0x200003EC
30002D0A  F9B7 0000		ldrsh r0, [r7]
30002D0E  F8DF 7790		ldr r7, [pc, #+1936] ; 0x3800020A
30002D12  8038     		strh r0, [r7]

#59			MOVE		step1.ZPOSOUT,ZPos {R:2$118}
(*) INT
30002D14  F8DF 7690		ldr r7, [pc, #+1680] ; 0x200003EE
30002D18  F9B7 0000		ldrsh r0, [r7]
30002D1C  F8DF 7784		ldr r7, [pc, #+1924] ; 0x38000210
30002D20  8038     		strh r0, [r7]

#60		$$LAB$6:
#61			LD		$$VAR$3
(*) UNDEF
30002D22  F8DF 7630		ldr r7, [pc, #+1584] ; 0x200003B1
30002D26  7838     		ldrb r0, [r7]

#62		 
#63			(* Network 3 *)
#64			LD		auto {R:3$90}
(*) UNDEF
30002D28  F8DF 760C		ldr r7, [pc, #+1548] ; 0x200002A8
30002D2C  7838     		ldrb r0, [r7]

#65			AND		pickSeq {R:3$20}
(*) BOOL
30002D2E  F8DF 761C		ldr r7, [pc, #+1564] ; 0x2000039B
30002D32  783F     		ldrb r7, [r7]
30002D34  4038     		and r0, r0, r7

#66			ST		$$VAR$1
(*) BOOL
30002D36  F8DF 7610		ldr r7, [pc, #+1552] ; 0x2000039A
30002D3A  7038     		strb r0, [r7]

#67			JMPCN	$$LAB$7
(-) BOOL
30002D3C  2800     		cmp r0, #0
30002D3E  D009     		beq #18 ; 0x30002D54


#68			LD		curSeq {R:3$60}
(*) UNDEF
30002D42  F8DF 75F8		ldr r7, [pc, #+1528] ; 0x200002B6
30002D46  F9B7 0000		ldrsh r0, [r7]

#69			EQ		20 {R:3$63}
(*) INT
30002D4A  2814     		cmp r0, #20
30002D4C  BF18 2000		nemov r0, #0
30002D50  BF08 2001		eqmov r0, #1

#70		$$LAB$7:
#71			ST		$$VAR$2
(*) BOOL
30002D54  F8DF 75F8		ldr r7, [pc, #+1528] ; 0x200003B0
30002D58  7038     		strb r0, [r7]

#72			JMPCN	$$LAB$8
(-) BOOL
30002D5A  2800     		cmp r0, #0
30002D5C  D058     		beq #176 ; 0x30002E10


#73			MOVE		pickPositionX,step2.XPOSIN {R:3$93}
(*) BOOL
30002D60  F8DF 75C4		ldr r7, [pc, #+1476] ; 0x1F0E
30002D64  4638     		mov r0, r7
30002D66  F8DF 7648		ldr r7, [pc, #+1608] ; 0x20000406
30002D6A  8038     		strh r0, [r7]

#74			(* $EXPR3$95 := pickPositionsY[pickIndex] + pickOffsetY; *)
#75			LD		pickPositionsY[pickIndex]	{R:3$95}
(*) UNDEF
30002D6C  F8DF 75D4		ldr r7, [pc, #+1492] ; 0x200002BA
30002D70  F9B7 5000		ldrsh r5, [r7]
30002D74  F8DF 7710		ldr r7, [pc, #+1808] ; 0x300000C0
30002D78  EB07 0745		add r7, r7, r5, lsl #1
30002D7C  F9B7 0000		ldrsh r0, [r7]

#76			ADD		pickOffsetY	{R:3$95}
(*) INT
30002D80  F8DF 75D4		ldr r7, [pc, #+1492] ; 0x200003B2
30002D84  F9B7 7000		ldrsh r7, [r7]
30002D88  19C0     		add r0, r0, r7

#77			ST		$EXPR3$95	{R:3$95}
(*) INT
30002D8A  F8DF 76F0		ldr r7, [pc, #+1776] ; 0x20000B46
30002D8E  8038     		strh r0, [r7]

#78			MOVE		$EXPR3$95,step2.YPOSIN {R:3$93}
(*) INT
30002D90  F8DF 76E8		ldr r7, [pc, #+1768] ; 0x20000B46
30002D94  F9B7 0000		ldrsh r0, [r7]
30002D98  F8DF 7618		ldr r7, [pc, #+1560] ; 0x20000408
30002D9C  8038     		strh r0, [r7]

#79			MOVE		0,step2.ZPOSIN {R:3$93}
(*) INT
30002D9E  2000     		mov r0, #0 ; 0
30002DA0  F8DF 7614		ldr r7, [pc, #+1556] ; 0x2000040A
30002DA4  8038     		strh r0, [r7]

#80			MOVE		XPosAct,step2.XPOSACT {R:3$93}
(*) INT
30002DA6  F8DF 76E8		ldr r7, [pc, #+1768] ; 0x38000000
30002DAA  F9B7 0000		ldrsh r0, [r7]
30002DAE  F8DF 760C		ldr r7, [pc, #+1548] ; 0x2000040C
30002DB2  8038     		strh r0, [r7]

#81			MOVE		YPosAct,step2.YPOSACT {R:3$93}
(*) INT
30002DB4  F8DF 76DC		ldr r7, [pc, #+1756] ; 0x38000002
30002DB8  F9B7 0000		ldrsh r0, [r7]
30002DBC  F8DF 7600		ldr r7, [pc, #+1536] ; 0x2000040E
30002DC0  8038     		strh r0, [r7]

#82			MOVE		ZPosAct,step2.ZPOSACT {R:3$93}
(*) INT
30002DC2  F8DF 76D4		ldr r7, [pc, #+1748] ; 0x38000004
30002DC6  F9B7 0000		ldrsh r0, [r7]
30002DCA  F8DF 75F8		ldr r7, [pc, #+1528] ; 0x20000410
30002DCE  8038     		strh r0, [r7]

#83			CAL		step2 {R:3$93}
(*) INT
30002DD0  E92D 0021		stmdb sp!, { r0, r5 }
30002DD4  F8DF 55D4		ldr r5, [pc, #+1492] ; 0x20000400
30002DD8  F8DF 46B0		ldr r4, [pc, #+1712] ; 0x30001838
30002DDC  F044 0401		orr r4, r4, #1
30002DE0  47A0     		blx r4
30002DE2  E8BD 0021		ldmia sp!, { r0, r5 }

#84			MOVE		step2.XPOSOUT,XPos {R:3$93}
(*) INT
30002DE6  F8DF 75E0		ldr r7, [pc, #+1504] ; 0x20000412
30002DEA  F9B7 0000		ldrsh r0, [r7]
30002DEE  F8DF 76AC		ldr r7, [pc, #+1708] ; 0x38000204
30002DF2  8038     		strh r0, [r7]

#85			MOVE		step2.YPOSOUT,YPos {R:3$93}
(*) INT
30002DF4  F8DF 75D4		ldr r7, [pc, #+1492] ; 0x20000414
30002DF8  F9B7 0000		ldrsh r0, [r7]
30002DFC  F8DF 76A0		ldr r7, [pc, #+1696] ; 0x3800020A
30002E00  8038     		strh r0, [r7]

#86			MOVE		step2.ZPOSOUT,ZPos {R:3$93}
(*) INT
30002E02  F8DF 75CC		ldr r7, [pc, #+1484] ; 0x20000416
30002E06  F9B7 0000		ldrsh r0, [r7]
30002E0A  F8DF 7698		ldr r7, [pc, #+1688] ; 0x38000210
30002E0E  8038     		strh r0, [r7]

#87		$$LAB$8:
#88			LD		$$VAR$2
(*) UNDEF
30002E10  F8DF 753C		ldr r7, [pc, #+1340] ; 0x200003B0
30002E14  7838     		ldrb r0, [r7]

#89		 
#90			(* Network 4 *)
#91			LD		auto {R:4$88}
(*) UNDEF
30002E16  F8DF 7520		ldr r7, [pc, #+1312] ; 0x200002A8
30002E1A  7838     		ldrb r0, [r7]

#92			AND		pickSeq {R:4$20}
(*) BOOL
30002E1C  F8DF 752C		ldr r7, [pc, #+1324] ; 0x2000039B
30002E20  783F     		ldrb r7, [r7]
30002E22  4038     		and r0, r0, r7

#93			ST		$$VAR$1
(*) BOOL
30002E24  F8DF 7520		ldr r7, [pc, #+1312] ; 0x2000039A
30002E28  7038     		strb r0, [r7]

#94			JMPCN	$$LAB$9
(-) BOOL
30002E2A  2800     		cmp r0, #0
30002E2C  D009     		beq #18 ; 0x30002E42


#95			LD		curSeq {R:4$60}
(*) UNDEF
30002E30  F8DF 7508		ldr r7, [pc, #+1288] ; 0x200002B6
30002E34  F9B7 0000		ldrsh r0, [r7]

#96			EQ		30 {R:4$63}
(*) INT
30002E38  281E     		cmp r0, #30
30002E3A  BF18 2000		nemov r0, #0
30002E3E  BF08 2001		eqmov r0, #1

#97		$$LAB$9:
#98			ST		$$VAR$2
(*) BOOL
30002E42  F8DF 750C		ldr r7, [pc, #+1292] ; 0x200003B0
30002E46  7038     		strb r0, [r7]

#99			JMPCN	$$LAB$10
(-) BOOL
30002E48  2800     		cmp r0, #0
30002E4A  D04C     		beq #152 ; 0x30002EE6


#100			MOVE		pickPositionX,step3.XPOSIN {R:4$91}
(*) BOOL
30002E4E  F8DF 74D8		ldr r7, [pc, #+1240] ; 0x1F0E
30002E52  4638     		mov r0, r7
30002E54  F8DF 7580		ldr r7, [pc, #+1408] ; 0x2000042A
30002E58  8038     		strh r0, [r7]

#101			MOVE		pickPositionsY[pickIndex],step3.YPOSIN {R:4$91}
(*) INT
30002E5A  F8DF 74E8		ldr r7, [pc, #+1256] ; 0x200002BA
30002E5E  F9B7 5000		ldrsh r5, [r7]
30002E62  F8DF 7624		ldr r7, [pc, #+1572] ; 0x300000C0
30002E66  EB07 0745		add r7, r7, r5, lsl #1
30002E6A  F9B7 0000		ldrsh r0, [r7]
30002E6E  F8DF 756C		ldr r7, [pc, #+1388] ; 0x2000042C
30002E72  8038     		strh r0, [r7]

#102			MOVE		0,step3.ZPOSIN {R:4$91}
(*) INT
30002E74  2000     		mov r0, #0 ; 0
30002E76  F8DF 7568		ldr r7, [pc, #+1384] ; 0x2000042E
30002E7A  8038     		strh r0, [r7]

#103			MOVE		XPosAct,step3.XPOSACT {R:4$91}
(*) INT
30002E7C  F8DF 7610		ldr r7, [pc, #+1552] ; 0x38000000
30002E80  F9B7 0000		ldrsh r0, [r7]
30002E84  F8DF 755C		ldr r7, [pc, #+1372] ; 0x20000430
30002E88  8038     		strh r0, [r7]

#104			MOVE		YPosAct,step3.YPOSACT {R:4$91}
(*) INT
30002E8A  F8DF 7608		ldr r7, [pc, #+1544] ; 0x38000002
30002E8E  F9B7 0000		ldrsh r0, [r7]
30002E92  F8DF 7554		ldr r7, [pc, #+1364] ; 0x20000432
30002E96  8038     		strh r0, [r7]

#105			MOVE		ZPosAct,step3.ZPOSACT {R:4$91}
(*) INT
30002E98  F8DF 75FC		ldr r7, [pc, #+1532] ; 0x38000004
30002E9C  F9B7 0000		ldrsh r0, [r7]
30002EA0  F8DF 7548		ldr r7, [pc, #+1352] ; 0x20000434
30002EA4  8038     		strh r0, [r7]

#106			CAL		step3 {R:4$91}
(*) INT
30002EA6  E92D 0021		stmdb sp!, { r0, r5 }
30002EAA  F8DF 5528		ldr r5, [pc, #+1320] ; 0x20000424
30002EAE  F8DF 45DC		ldr r4, [pc, #+1500] ; 0x30001838
30002EB2  F044 0401		orr r4, r4, #1
30002EB6  47A0     		blx r4
30002EB8  E8BD 0021		ldmia sp!, { r0, r5 }

#107			MOVE		step3.XPOSOUT,XPos {R:4$91}
(*) INT
30002EBC  F8DF 7530		ldr r7, [pc, #+1328] ; 0x20000436
30002EC0  F9B7 0000		ldrsh r0, [r7]
30002EC4  F8DF 75D4		ldr r7, [pc, #+1492] ; 0x38000204
30002EC8  8038     		strh r0, [r7]

#108			MOVE		step3.YPOSOUT,YPos {R:4$91}
(*) INT
30002ECA  F8DF 7528		ldr r7, [pc, #+1320] ; 0x20000438
30002ECE  F9B7 0000		ldrsh r0, [r7]
30002ED2  F8DF 75CC		ldr r7, [pc, #+1484] ; 0x3800020A
30002ED6  8038     		strh r0, [r7]

#109			MOVE		step3.ZPOSOUT,ZPos {R:4$91}
(*) INT
30002ED8  F8DF 751C		ldr r7, [pc, #+1308] ; 0x2000043A
30002EDC  F9B7 0000		ldrsh r0, [r7]
30002EE0  F8DF 75C0		ldr r7, [pc, #+1472] ; 0x38000210
30002EE4  8038     		strh r0, [r7]

#110		$$LAB$10:
#111			LD		$$VAR$2
(*) UNDEF
30002EE6  F8DF 7468		ldr r7, [pc, #+1128] ; 0x200003B0
30002EEA  7838     		ldrb r0, [r7]

#112		 
#113			(* Network 5 *)
#114			LD		auto {R:5$88}
(*) UNDEF
30002EEC  F8DF 7448		ldr r7, [pc, #+1096] ; 0x200002A8
30002EF0  7838     		ldrb r0, [r7]

#115			AND		pickSeq {R:5$20}
(*) BOOL
30002EF2  F8DF 7458		ldr r7, [pc, #+1112] ; 0x2000039B
30002EF6  783F     		ldrb r7, [r7]
30002EF8  4038     		and r0, r0, r7

#116			ST		$$VAR$1
(*) BOOL
30002EFA  F8DF 744C		ldr r7, [pc, #+1100] ; 0x2000039A
30002EFE  7038     		strb r0, [r7]

#117			JMPCN	$$LAB$11
(-) BOOL
30002F00  2800     		cmp r0, #0
30002F02  D009     		beq #18 ; 0x30002F18


#118			LD		curSeq {R:5$60}
(*) UNDEF
30002F06  F8DF 7434		ldr r7, [pc, #+1076] ; 0x200002B6
30002F0A  F9B7 0000		ldrsh r0, [r7]

#119			EQ		40 {R:5$63}
(*) INT
30002F0E  2828     		cmp r0, #40
30002F10  BF18 2000		nemov r0, #0
30002F14  BF08 2001		eqmov r0, #1

#120		$$LAB$11:
#121			ST		$$VAR$2
(*) BOOL
30002F18  F8DF 7434		ldr r7, [pc, #+1076] ; 0x200003B0
30002F1C  7038     		strb r0, [r7]

#122			JMPCN	$$LAB$12
(-) BOOL
30002F1E  2800     		cmp r0, #0
30002F20  D009     		beq #18 ; 0x30002F36


#123			LD		pickIndex {R:5$134}
(*) UNDEF
30002F24  F8DF 741C		ldr r7, [pc, #+1052] ; 0x200002BA
30002F28  F9B7 0000		ldrsh r0, [r7]

#124			EQ		9 {R:5$135}
(*) INT
30002F2C  2809     		cmp r0, #9
30002F2E  BF18 2000		nemov r0, #0
30002F32  BF08 2001		eqmov r0, #1

#125		$$LAB$12:
#126			ST		$$VAR$3
(*) BOOL
30002F36  F8DF 741C		ldr r7, [pc, #+1052] ; 0x200003B1
30002F3A  7038     		strb r0, [r7]

#127			JMPCN	$$LAB$13
(-) BOOL
30002F3C  2800     		cmp r0, #0
30002F3E  D055     		beq #170 ; 0x30002FEC


#128			MOVE		pickPositionX,step4.XPOSIN {R:5$119}
(*) BOOL
30002F42  F8DF 73E4		ldr r7, [pc, #+996] ; 0x1F0E
30002F46  4638     		mov r0, r7
30002F48  F8DF 74B4		ldr r7, [pc, #+1204] ; 0x2000044E
30002F4C  8038     		strh r0, [r7]

#129			MOVE		pickPositionsY[pickIndex],step4.YPOSIN {R:5$119}
(*) INT
30002F4E  F8DF 73F4		ldr r7, [pc, #+1012] ; 0x200002BA
30002F52  F9B7 5000		ldrsh r5, [r7]
30002F56  F8DF 7530		ldr r7, [pc, #+1328] ; 0x300000C0
30002F5A  EB07 0745		add r7, r7, r5, lsl #1
30002F5E  F9B7 0000		ldrsh r0, [r7]
30002F62  F8DF 74A0		ldr r7, [pc, #+1184] ; 0x20000450
30002F66  8038     		strh r0, [r7]

#130			MOVE		3500,step4.ZPOSIN {R:5$119}
(*) INT
30002F68  F8DF 73B8		ldr r7, [pc, #+952] ; 0xDAC
30002F6C  4638     		mov r0, r7
30002F6E  F8DF 7498		ldr r7, [pc, #+1176] ; 0x20000452
30002F72  B082     		sub sp, sp, #8
30002F74  F8CD 0000		str r0, [sp]
30002F78  B200     		sxth r0, r0
30002F7A  8038     		strh r0, [r7]
30002F7C  F8DD 0000		ldr r0, [sp]
30002F80  B002     		add sp, sp, #8

#131			MOVE		XPosAct,step4.XPOSACT {R:5$119}
(*) UINT
30002F82  F8DF 750C		ldr r7, [pc, #+1292] ; 0x38000000
30002F86  F9B7 0000		ldrsh r0, [r7]
30002F8A  F8DF 7480		ldr r7, [pc, #+1152] ; 0x20000454
30002F8E  8038     		strh r0, [r7]

#132			MOVE		YPosAct,step4.YPOSACT {R:5$119}
(*) INT
30002F90  F8DF 7500		ldr r7, [pc, #+1280] ; 0x38000002
30002F94  F9B7 0000		ldrsh r0, [r7]
30002F98  F8DF 7474		ldr r7, [pc, #+1140] ; 0x20000456
30002F9C  8038     		strh r0, [r7]

#133			MOVE		ZPosAct,step4.ZPOSACT {R:5$119}
(*) INT
30002F9E  F8DF 74F8		ldr r7, [pc, #+1272] ; 0x38000004
30002FA2  F9B7 0000		ldrsh r0, [r7]
30002FA6  F8DF 746C		ldr r7, [pc, #+1132] ; 0x20000458
30002FAA  8038     		strh r0, [r7]

#134			CAL		step4 {R:5$119}
(*) INT
30002FAC  E92D 0021		stmdb sp!, { r0, r5 }
30002FB0  F8DF 5448		ldr r5, [pc, #+1096] ; 0x20000448
30002FB4  F8DF 44D4		ldr r4, [pc, #+1236] ; 0x30001838
30002FB8  F044 0401		orr r4, r4, #1
30002FBC  47A0     		blx r4
30002FBE  E8BD 0021		ldmia sp!, { r0, r5 }

#135			MOVE		step4.XPOSOUT,XPos {R:5$119}
(*) INT
30002FC2  F8DF 7454		ldr r7, [pc, #+1108] ; 0x2000045A
30002FC6  F9B7 0000		ldrsh r0, [r7]
30002FCA  F8DF 74D0		ldr r7, [pc, #+1232] ; 0x38000204
30002FCE  8038     		strh r0, [r7]

#136			MOVE		step4.YPOSOUT,YPos {R:5$119}
(*) INT
30002FD0  F8DF 7448		ldr r7, [pc, #+1096] ; 0x2000045C
30002FD4  F9B7 0000		ldrsh r0, [r7]
30002FD8  F8DF 74C4		ldr r7, [pc, #+1220] ; 0x3800020A
30002FDC  8038     		strh r0, [r7]

#137			MOVE		step4.ZPOSOUT,ZPos {R:5$119}
(*) INT
30002FDE  F8DF 7440		ldr r7, [pc, #+1088] ; 0x2000045E
30002FE2  F9B7 0000		ldrsh r0, [r7]
30002FE6  F8DF 74BC		ldr r7, [pc, #+1212] ; 0x38000210
30002FEA  8038     		strh r0, [r7]

#138		$$LAB$13:
#139			LD		$$VAR$3
(*) UNDEF
30002FEC  F8DF 7364		ldr r7, [pc, #+868] ; 0x200003B1
30002FF0  7838     		ldrb r0, [r7]

#140			LD		$$VAR$2
(*) UNDEF
30002FF2  F8DF 735C		ldr r7, [pc, #+860] ; 0x200003B0
30002FF6  7838     		ldrb r0, [r7]

#141			JMPCN	$$LAB$14
(-) BOOL
30002FF8  2800     		cmp r0, #0
30002FFA  D009     		beq #18 ; 0x30003010


#142			LD		pickIndex {R:5$108}
(*) UNDEF
30002FFE  F8DF 7344		ldr r7, [pc, #+836] ; 0x200002BA
30003002  F9B7 0000		ldrsh r0, [r7]

#143			LT		9 {R:5$111}
(*) INT
30003006  2809     		cmp r0, #9
30003008  BFA8 2000		gemov r0, #0
3000300C  BFB8 2001		ltmov r0, #1

#144		$$LAB$14:
#145			ST		$$VAR$4
(*) BOOL
30003010  F8DF 7410		ldr r7, [pc, #+1040] ; 0x2000046C
30003014  7038     		strb r0, [r7]

#146			JMPCN	$$LAB$15
(-) BOOL
30003016  2800     		cmp r0, #0
30003018  D008     		beq #16 ; 0x3000302C


#147			LD		curSeq {R:5$115}
(*) UNDEF
3000301C  F8DF 731C		ldr r7, [pc, #+796] ; 0x200002B6
30003020  F9B7 0000		ldrsh r0, [r7]

#148			ADD		10 {R:5$118}
(-) INT
30003024  300A     		add r0, r0, #10

#149			ST		curSeq {R:5$117}
(*) INT
30003026  F8DF 7314		ldr r7, [pc, #+788] ; 0x200002B6
3000302A  8038     		strh r0, [r7]

#150		$$LAB$15:
#151			LD		$$VAR$4
(*) UNDEF
3000302C  F8DF 73F4		ldr r7, [pc, #+1012] ; 0x2000046C
30003030  7838     		ldrb r0, [r7]

#152		 
#153			(* Network 6 *)
#154			LD		auto {R:6$88}
(*) UNDEF
30003032  F8DF 7304		ldr r7, [pc, #+772] ; 0x200002A8
30003036  7838     		ldrb r0, [r7]

#155			AND		pickSeq {R:6$20}
(*) BOOL
30003038  F8DF 7310		ldr r7, [pc, #+784] ; 0x2000039B
3000303C  783F     		ldrb r7, [r7]
3000303E  4038     		and r0, r0, r7

#156			ST		$$VAR$1
(*) BOOL
30003040  F8DF 7304		ldr r7, [pc, #+772] ; 0x2000039A
30003044  7038     		strb r0, [r7]

#157			JMPCN	$$LAB$16
(-) BOOL
30003046  2800     		cmp r0, #0
30003048  D009     		beq #18 ; 0x3000305E


#158			LD		curSeq {R:6$60}
(*) UNDEF
3000304C  F8DF 72EC		ldr r7, [pc, #+748] ; 0x200002B6
30003050  F9B7 0000		ldrsh r0, [r7]

#159			EQ		50 {R:6$63}
(*) INT
30003054  2832     		cmp r0, #50
30003056  BF18 2000		nemov r0, #0
3000305A  BF08 2001		eqmov r0, #1

#160		$$LAB$16:
#161			ST		$$VAR$2
(*) BOOL
3000305E  F8DF 72F0		ldr r7, [pc, #+752] ; 0x200003B0
30003062  7038     		strb r0, [r7]

#162			JMPCN	$$LAB$17
(-) BOOL
30003064  2800     		cmp r0, #0
30003066  D009     		beq #18 ; 0x3000307C


#163			LD		pickIndex {R:6$129}
(*) UNDEF
3000306A  F8DF 72D8		ldr r7, [pc, #+728] ; 0x200002BA
3000306E  F9B7 0000		ldrsh r0, [r7]

#164			EQ		9 {R:6$132}
(*) INT
30003072  2809     		cmp r0, #9
30003074  BF18 2000		nemov r0, #0
30003078  BF08 2001		eqmov r0, #1

#165		$$LAB$17:
#166			ST		$$VAR$3
(*) BOOL
3000307C  F8DF 72D4		ldr r7, [pc, #+724] ; 0x200003B1
30003080  7038     		strb r0, [r7]

#167			JMPCN	$$LAB$18
(-) BOOL
30003082  2800     		cmp r0, #0
30003084  D06C     		beq #216 ; 0x30003160


#168			MOVE		pickPositionX,step5.XPOSIN {R:6$118}
(*) BOOL
30003088  F8DF 729C		ldr r7, [pc, #+668] ; 0x1F0E
3000308C  4638     		mov r0, r7
3000308E  F8DF 739C		ldr r7, [pc, #+924] ; 0x20000476
30003092  8038     		strh r0, [r7]

#169			(* $EXPR6$120 := pickPositionsY[pickIndex] - 400; *)
#170			LD		pickPositionsY[pickIndex]	{R:6$120}
(*) UNDEF
30003094  F8DF 72AC		ldr r7, [pc, #+684] ; 0x200002BA
30003098  F9B7 5000		ldrsh r5, [r7]
3000309C  F8DF 73E8		ldr r7, [pc, #+1000] ; 0x300000C0
300030A0  EB07 0745		add r7, r7, r5, lsl #1
300030A4  F9B7 0000		ldrsh r0, [r7]

#171			SUB		400	{R:6$120}
(*) INT
300030A8  F44F 77C8		mov r7, #400 ; 400
300030AC  B23F     		sxth r7, r7
300030AE  1BC0     		sub r0, r0, r7

#172			ST		$EXPR6$120	{R:6$120}
(*) INT
300030B0  F8DF 73CC		ldr r7, [pc, #+972] ; 0x20000B48
300030B4  B082     		sub sp, sp, #8
300030B6  F8CD 0000		str r0, [sp]
300030BA  8038     		strh r0, [r7]
300030BC  F8DD 0000		ldr r0, [sp]
300030C0  B002     		add sp, sp, #8

#173			MOVE		$EXPR6$120,step5.YPOSIN {R:6$118}
(*) UINT
300030C2  F8DF 73BC		ldr r7, [pc, #+956] ; 0x20000B48
300030C6  8838     		ldrh r0, [r7]
300030C8  F8DF 7364		ldr r7, [pc, #+868] ; 0x20000478
300030CC  B082     		sub sp, sp, #8
300030CE  F8CD 0000		str r0, [sp]
300030D2  B200     		sxth r0, r0
300030D4  8038     		strh r0, [r7]
300030D6  F8DD 0000		ldr r0, [sp]
300030DA  B002     		add sp, sp, #8

#174			MOVE		3500,step5.ZPOSIN {R:6$118}
(*) UINT
300030DC  F8DF 7244		ldr r7, [pc, #+580] ; 0xDAC
300030E0  4638     		mov r0, r7
300030E2  F8DF 7350		ldr r7, [pc, #+848] ; 0x2000047A
300030E6  B082     		sub sp, sp, #8
300030E8  F8CD 0000		str r0, [sp]
300030EC  B200     		sxth r0, r0
300030EE  8038     		strh r0, [r7]
300030F0  F8DD 0000		ldr r0, [sp]
300030F4  B002     		add sp, sp, #8

#175			MOVE		XPosAct,step5.XPOSACT {R:6$118}
(*) UINT
300030F6  F8DF 7398		ldr r7, [pc, #+920] ; 0x38000000
300030FA  F9B7 0000		ldrsh r0, [r7]
300030FE  F8DF 7338		ldr r7, [pc, #+824] ; 0x2000047C
30003102  8038     		strh r0, [r7]

#176			MOVE		YPosAct,step5.YPOSACT {R:6$118}
(*) INT
30003104  F8DF 738C		ldr r7, [pc, #+908] ; 0x38000002
30003108  F9B7 0000		ldrsh r0, [r7]
3000310C  F8DF 732C		ldr r7, [pc, #+812] ; 0x2000047E
30003110  8038     		strh r0, [r7]

#177			MOVE		ZPosAct,step5.ZPOSACT {R:6$118}
(*) INT
30003112  F8DF 7384		ldr r7, [pc, #+900] ; 0x38000004
30003116  F9B7 0000		ldrsh r0, [r7]
3000311A  F8DF 7324		ldr r7, [pc, #+804] ; 0x20000480
3000311E  8038     		strh r0, [r7]

#178			CAL		step5 {R:6$118}
(*) INT
30003120  E92D 0021		stmdb sp!, { r0, r5 }
30003124  F8DF 5300		ldr r5, [pc, #+768] ; 0x20000470
30003128  F8DF 4360		ldr r4, [pc, #+864] ; 0x30001838
3000312C  F044 0401		orr r4, r4, #1
30003130  47A0     		blx r4
30003132  E8BD 0021		ldmia sp!, { r0, r5 }

#179			MOVE		step5.XPOSOUT,XPos {R:6$118}
(*) INT
30003136  F8DF 730C		ldr r7, [pc, #+780] ; 0x20000482
3000313A  F9B7 0000		ldrsh r0, [r7]
3000313E  F8DF 735C		ldr r7, [pc, #+860] ; 0x38000204
30003142  8038     		strh r0, [r7]

#180			MOVE		step5.YPOSOUT,YPos {R:6$118}
(*) INT
30003144  F8DF 7300		ldr r7, [pc, #+768] ; 0x20000484
30003148  F9B7 0000		ldrsh r0, [r7]
3000314C  F8DF 7350		ldr r7, [pc, #+848] ; 0x3800020A
30003150  8038     		strh r0, [r7]

#181			MOVE		step5.ZPOSOUT,ZPos {R:6$118}
(*) INT
30003152  F8DF 72F8		ldr r7, [pc, #+760] ; 0x20000486
30003156  F9B7 0000		ldrsh r0, [r7]
3000315A  F8DF 7348		ldr r7, [pc, #+840] ; 0x38000210
3000315E  8038     		strh r0, [r7]

#182		$$LAB$18:
#183			LD		$$VAR$3
(*) UNDEF
30003160  F8DF 71F0		ldr r7, [pc, #+496] ; 0x200003B1
30003164  7838     		ldrb r0, [r7]

#184			LD		$$VAR$2
(*) UNDEF
30003166  F8DF 71E8		ldr r7, [pc, #+488] ; 0x200003B0
3000316A  7838     		ldrb r0, [r7]

#185			JMPCN	$$LAB$19
(-) BOOL
3000316C  2800     		cmp r0, #0
3000316E  D009     		beq #18 ; 0x30003184


#186			LD		pickIndex {R:6$109}
(*) UNDEF
30003172  F8DF 71D0		ldr r7, [pc, #+464] ; 0x200002BA
30003176  F9B7 0000		ldrsh r0, [r7]

#187			LT		9 {R:6$112}
(*) INT
3000317A  2809     		cmp r0, #9
3000317C  BFA8 2000		gemov r0, #0
30003180  BFB8 2001		ltmov r0, #1

#188		$$LAB$19:
#189			ST		$$VAR$4
(*) BOOL
30003184  F8DF 729C		ldr r7, [pc, #+668] ; 0x2000046C
30003188  7038     		strb r0, [r7]

#190			JMPCN	$$LAB$20
(-) BOOL
3000318A  2800     		cmp r0, #0
3000318C  D008     		beq #16 ; 0x300031A0


#191			LD		curSeq {R:6$114}
(*) UNDEF
30003190  F8DF 71A8		ldr r7, [pc, #+424] ; 0x200002B6
30003194  F9B7 0000		ldrsh r0, [r7]

#192			ADD		10 {R:6$117}
(-) INT
30003198  300A     		add r0, r0, #10

#193			ST		curSeq {R:6$116}
(*) INT
3000319A  F8DF 71A0		ldr r7, [pc, #+416] ; 0x200002B6
3000319E  8038     		strh r0, [r7]

#194		$$LAB$20:
#195			LD		$$VAR$4
(*) UNDEF
300031A0  F8DF 7280		ldr r7, [pc, #+640] ; 0x2000046C
300031A4  7838     		ldrb r0, [r7]

#196		 
#197			(* Network 7 *)
#198			LD		auto {R:7$87}
(*) UNDEF
300031A6  F8DF 7190		ldr r7, [pc, #+400] ; 0x200002A8
300031AA  7838     		ldrb r0, [r7]

#199			AND		pickSeq {R:7$20}
(*) BOOL
300031AC  F8DF 719C		ldr r7, [pc, #+412] ; 0x2000039B
300031B0  783F     		ldrb r7, [r7]
300031B2  4038     		and r0, r0, r7

#200			ST		$$VAR$1
(*) BOOL
300031B4  F8DF 7190		ldr r7, [pc, #+400] ; 0x2000039A
300031B8  7038     		strb r0, [r7]

#201			JMPCN	$$LAB$21
(-) BOOL
300031BA  2800     		cmp r0, #0
300031BC  D009     		beq #18 ; 0x300031D2


#202			LD		curSeq {R:7$60}
(*) UNDEF
300031C0  F8DF 7178		ldr r7, [pc, #+376] ; 0x200002B6
300031C4  F9B7 0000		ldrsh r0, [r7]

#203			EQ		60 {R:7$63}
(*) INT
300031C8  283C     		cmp r0, #60
300031CA  BF18 2000		nemov r0, #0
300031CE  BF08 2001		eqmov r0, #1

#204		$$LAB$21:
#205			ST		$$VAR$2
(*) BOOL
300031D2  F8DF 717C		ldr r7, [pc, #+380] ; 0x200003B0
300031D6  7038     		strb r0, [r7]

#206			JMPCN	$$LAB$22
(-) BOOL
300031D8  2800     		cmp r0, #0
300031DA  D04E     		beq #156 ; 0x3000327A


#207			MOVE		pickPositionX,step6.XPOSIN {R:7$91}
(*) BOOL
300031DE  F8DF 7148		ldr r7, [pc, #+328] ; 0x1F0E
300031E2  4638     		mov r0, r7
300031E4  F8DF 726C		ldr r7, [pc, #+620] ; 0x2000049A
300031E8  8038     		strh r0, [r7]

#208			MOVE		pickPositionsY[pickIndex],step6.YPOSIN {R:7$91}
(*) INT
300031EA  F8DF 7158		ldr r7, [pc, #+344] ; 0x200002BA
300031EE  F9B7 5000		ldrsh r5, [r7]
300031F2  F8DF 7294		ldr r7, [pc, #+660] ; 0x300000C0
300031F6  EB07 0745		add r7, r7, r5, lsl #1
300031FA  F9B7 0000		ldrsh r0, [r7]
300031FE  F8DF 7258		ldr r7, [pc, #+600] ; 0x2000049C
30003202  8038     		strh r0, [r7]

#209			MOVE		pickClearanceZ,step6.ZPOSIN {R:7$91}
(*) INT
30003204  F8DF 7124		ldr r7, [pc, #+292] ; 0x2710
30003208  4638     		mov r0, r7
3000320A  F8DF 7250		ldr r7, [pc, #+592] ; 0x2000049E
3000320E  8038     		strh r0, [r7]

#210			MOVE		XPosAct,step6.XPOSACT {R:7$91}
(*) INT
30003210  F8DF 727C		ldr r7, [pc, #+636] ; 0x38000000
30003214  F9B7 0000		ldrsh r0, [r7]
30003218  F8DF 7244		ldr r7, [pc, #+580] ; 0x200004A0
3000321C  8038     		strh r0, [r7]

#211			MOVE		YPosAct,step6.YPOSACT {R:7$91}
(*) INT
3000321E  F8DF 7274		ldr r7, [pc, #+628] ; 0x38000002
30003222  F9B7 0000		ldrsh r0, [r7]
30003226  F8DF 723C		ldr r7, [pc, #+572] ; 0x200004A2
3000322A  8038     		strh r0, [r7]

#212			MOVE		ZPosAct,step6.ZPOSACT {R:7$91}
(*) INT
3000322C  F8DF 7268		ldr r7, [pc, #+616] ; 0x38000004
30003230  F9B7 0000		ldrsh r0, [r7]
30003234  F8DF 7230		ldr r7, [pc, #+560] ; 0x200004A4
30003238  8038     		strh r0, [r7]

#213			CAL		step6 {R:7$91}
(*) INT
3000323A  E92D 0021		stmdb sp!, { r0, r5 }
3000323E  F8DF 5210		ldr r5, [pc, #+528] ; 0x20000494
30003242  F8DF 4248		ldr r4, [pc, #+584] ; 0x30001838
30003246  F044 0401		orr r4, r4, #1
3000324A  47A0     		blx r4
3000324C  E8BD 0021		ldmia sp!, { r0, r5 }

#214			MOVE		step6.XPOSOUT,XPos {R:7$91}
(*) INT
30003250  F8DF 7218		ldr r7, [pc, #+536] ; 0x200004A6
30003254  F9B7 0000		ldrsh r0, [r7]
30003258  F8DF 7240		ldr r7, [pc, #+576] ; 0x38000204
3000325C  8038     		strh r0, [r7]

#215			MOVE		step6.YPOSOUT,YPos {R:7$91}
(*) INT
3000325E  F8DF 7210		ldr r7, [pc, #+528] ; 0x200004A8
30003262  F9B7 0000		ldrsh r0, [r7]
30003266  F8DF 7238		ldr r7, [pc, #+568] ; 0x3800020A
3000326A  8038     		strh r0, [r7]

#216			MOVE		step6.ZPOSOUT,ZPos {R:7$91}
(*) INT
3000326C  F8DF 7204		ldr r7, [pc, #+516] ; 0x200004AA
30003270  F9B7 0000		ldrsh r0, [r7]
30003274  F8DF 722C		ldr r7, [pc, #+556] ; 0x38000210
30003278  8038     		strh r0, [r7]

#217		$$LAB$22:
#218			LD		$$VAR$2
(*) UNDEF
3000327A  F8DF 70D4		ldr r7, [pc, #+212] ; 0x200003B0
3000327E  7838     		ldrb r0, [r7]

#219		 
#220			(* Network 8 *)
#221			LD		auto {R:8$17}
(*) UNDEF
30003280  F8DF 70B4		ldr r7, [pc, #+180] ; 0x200002A8
30003284  7838     		ldrb r0, [r7]

#222			AND		pickSeq {R:8$18}
(*) BOOL
30003286  F8DF 70C4		ldr r7, [pc, #+196] ; 0x2000039B
3000328A  783F     		ldrb r7, [r7]
3000328C  4038     		and r0, r0, r7

#223			ST		$$VAR$1
(*) BOOL
3000328E  F8DF 70B8		ldr r7, [pc, #+184] ; 0x2000039A
30003292  7038     		strb r0, [r7]

#224			JMPCN	$$LAB$23
(-) BOOL
30003294  2800     		cmp r0, #0
30003296  D00C     		beq #24 ; 0x300032B2


#225			LD		curSeq {R:8$24}
(*) UNDEF
3000329A  F8DF 70A0		ldr r7, [pc, #+160] ; 0x200002B6
3000329E  F9B7 0000		ldrsh r0, [r7]

#226			EQ		70 {R:8$27}
(*) INT
300032A2  2846     		cmp r0, #70
300032A4  BF18 2000		nemov r0, #0
300032A8  BF08 2001		eqmov r0, #1

#227			ST		cmplt {R:8$37}
(*) BOOL
300032AC  F8DF 7090		ldr r7, [pc, #+144] ; 0x200002B9
300032B0  7038     		strb r0, [r7]

#228		$$LAB$23:
#229			LD		$$VAR$1
(*) UNDEF
300032B2  F8DF 7094		ldr r7, [pc, #+148] ; 0x2000039A
300032B6  7838     		ldrb r0, [r7]

#230		 
#231			(* Network 9 *)
#232			LD		auto {R:9$7}
(*) UNDEF
300032B8  F8DF 707C		ldr r7, [pc, #+124] ; 0x200002A8
300032BC  7838     		ldrb r0, [r7]

#233			AND		pickSeq {R:9$5}
(*) BOOL
300032BE  F8DF 708C		ldr r7, [pc, #+140] ; 0x2000039B
300032C2  783F     		ldrb r7, [r7]
300032C4  4038     		and r0, r0, r7

#234			AND		cmplt {R:9$2}
(*) BOOL
300032C6  F8DF 7078		ldr r7, [pc, #+120] ; 0x200002B9
300032CA  783F     		ldrb r7, [r7]
300032CC  4038     		and r0, r0, r7

#235			ST		$$VAR$1
(*) BOOL
300032CE  F8DF 7078		ldr r7, [pc, #+120] ; 0x2000039A
300032D2  7038     		strb r0, [r7]

#236			JMPCN	$$LAB$24
(-) BOOL
300032D4  2800     		cmp r0, #0
300032D6  D00A     		beq #20 ; 0x300032EE


#237			LD		9 {R:9$34}
(-) UNDEF
300032DA  2009     		mov r0, #9 ; 9

#238			EQ		pickIndex {R:9$32}
(*) USINT
300032DC  F8DF 7064		ldr r7, [pc, #+100] ; 0x200002BA
300032E0  F9B7 7000		ldrsh r7, [r7]
300032E4  42B8     		cmp r0, r7
300032E6  BF18 2000		nemov r0, #0
300032EA  BF08 2001		eqmov r0, #1

#239		$$LAB$24:
#240			R		EnableA {R:9$41}
(*) BOOL
300032EE  2800     		cmp r0, #0
300032F0  D009     		beq #0x000012
300032F2  B082     		sub sp, sp, #8
300032F4  F8CD 0000		str r0, [sp]
300032F8  2000     		mov r0, #0
300032FA  F8DF 7188		ldr r7, [pc, #+392] ; 0x24020671
300032FE  7038     		strb r0, [r7]
30003300  F8DD 0000		ldr r0, [sp]
30003304  B002     		add sp, sp, #8

#241		 
#242			(* Network 10 *)
#243			LD		auto {R:10$7}
(*) UNDEF
30003306  F8DF 7030		ldr r7, [pc, #+48] ; 0x200002A8
3000330A  7838     		ldrb r0, [r7]

#244			AND		pickSeq {R:10$5}
(*) BOOL
3000330C  F8DF 703C		ldr r7, [pc, #+60] ; 0x2000039B
30003310  783F     		ldrb r7, [r7]
30003312  4038     		and r0, r0, r7

#245			AND		cmplt {R:10$2}
(*) BOOL
30003314  F8DF 7028		ldr r7, [pc, #+40] ; 0x200002B9
30003318  783F     		ldrb r7, [r7]
3000331A  4038     		and r0, r0, r7

#246			ST		$$VAR$1
(*) BOOL
3000331C  F8DF 7028		ldr r7, [pc, #+40] ; 0x2000039A
30003320  7038     		strb r0, [r7]

30003322  E0C1     		b #386

30003324  00000DAC		; 0x00000DAC
30003328  00001F0E		; 0x00001F0E
3000332C  00002710		; 0x00002710
30003330  000039D0		; 0x000039D0
30003334  00004A38		; 0x00004A38
30003338  200002A8		; 0x200002A8
3000333C  200002B6		; 0x200002B6
30003340  200002B9		; 0x200002B9
30003344  200002BA		; 0x200002BA
30003348  2000039A		; 0x2000039A
3000334C  2000039B		; 0x2000039B
30003350  200003B0		; 0x200003B0
30003354  200003B1		; 0x200003B1
30003358  200003B2		; 0x200003B2
3000335C  200003B4		; 0x200003B4
30003360  200003BA		; 0x200003BA
30003364  200003BC		; 0x200003BC
30003368  200003BE		; 0x200003BE
3000336C  200003C0		; 0x200003C0
30003370  200003C2		; 0x200003C2
30003374  200003C4		; 0x200003C4
30003378  200003C6		; 0x200003C6
3000337C  200003C8		; 0x200003C8
30003380  200003CA		; 0x200003CA
30003384  200003D8		; 0x200003D8
30003388  200003DE		; 0x200003DE
3000338C  200003E0		; 0x200003E0
30003390  200003E2		; 0x200003E2
30003394  200003E4		; 0x200003E4
30003398  200003E6		; 0x200003E6
3000339C  200003E8		; 0x200003E8
300033A0  200003EA		; 0x200003EA
300033A4  200003EC		; 0x200003EC
300033A8  200003EE		; 0x200003EE
300033AC  20000400		; 0x20000400
300033B0  20000406		; 0x20000406
300033B4  20000408		; 0x20000408
300033B8  2000040A		; 0x2000040A
300033BC  2000040C		; 0x2000040C
300033C0  2000040E		; 0x2000040E
300033C4  20000410		; 0x20000410
300033C8  20000412		; 0x20000412
300033CC  20000414		; 0x20000414
300033D0  20000416		; 0x20000416
300033D4  20000424		; 0x20000424
300033D8  2000042A		; 0x2000042A
300033DC  2000042C		; 0x2000042C
300033E0  2000042E		; 0x2000042E
300033E4  20000430		; 0x20000430
300033E8  20000432		; 0x20000432
300033EC  20000434		; 0x20000434
300033F0  20000436		; 0x20000436
300033F4  20000438		; 0x20000438
300033F8  2000043A		; 0x2000043A
300033FC  20000448		; 0x20000448
30003400  2000044E		; 0x2000044E
30003404  20000450		; 0x20000450
30003408  20000452		; 0x20000452
3000340C  20000454		; 0x20000454
30003410  20000456		; 0x20000456
30003414  20000458		; 0x20000458
30003418  2000045A		; 0x2000045A
3000341C  2000045C		; 0x2000045C
30003420  2000045E		; 0x2000045E
30003424  2000046C		; 0x2000046C
30003428  20000470		; 0x20000470
3000342C  20000476		; 0x20000476
30003430  20000478		; 0x20000478
30003434  2000047A		; 0x2000047A
30003438  2000047C		; 0x2000047C
3000343C  2000047E		; 0x2000047E
30003440  20000480		; 0x20000480
30003444  20000482		; 0x20000482
30003448  20000484		; 0x20000484
3000344C  20000486		; 0x20000486
30003450  20000494		; 0x20000494
30003454  2000049A		; 0x2000049A
30003458  2000049C		; 0x2000049C
3000345C  2000049E		; 0x2000049E
30003460  200004A0		; 0x200004A0
30003464  200004A2		; 0x200004A2
30003468  200004A4		; 0x200004A4
3000346C  200004A6		; 0x200004A6
30003470  200004A8		; 0x200004A8
30003474  200004AA		; 0x200004AA
30003478  20000B44		; 0x20000B44
3000347C  20000B46		; 0x20000B46
30003480  20000B48		; 0x20000B48
30003484  FFFFFFFF		; 0x24020671
30003488  300000C0		; 0x300000C0
3000348C  30001838		; 0x30001838
30003490  FFFFFFFF		; 0x38000000
30003494  FFFFFFFF		; 0x38000002
30003498  FFFFFFFF		; 0x38000004
3000349C  FFFFFFFF		; 0x38000204
300034A0  FFFFFFFF		; 0x3800020A
300034A4  FFFFFFFF		; 0x38000210

#247			JMPCN	$$LAB$25
(-) BOOL
300034A8  2800     		cmp r0, #0
300034AA  D00A     		beq #20 ; 0x300034C2


#248			LD		9 {R:10$34}
(-) UNDEF
300034AE  2009     		mov r0, #9 ; 9

#249			EQ		pickIndex {R:10$32}
(*) USINT
300034B0  F85F 7170		ldr r7, [pc, #-368] ; 0x200002BA
300034B4  F9B7 7000		ldrsh r7, [r7]
300034B8  42B8     		cmp r0, r7
300034BA  BF18 2000		nemov r0, #0
300034BE  BF08 2001		eqmov r0, #1

#250		$$LAB$25:
#251			ST		$$VAR$2
(*) BOOL
300034C2  F85F 7174		ldr r7, [pc, #-372] ; 0x200003B0
300034C6  7038     		strb r0, [r7]

#252			JMPCN	$$LAB$26
(-) BOOL
300034C8  2800     		cmp r0, #0
300034CA  D00D     		beq #26 ; 0x300034E8


#253			LD		3000 {R:10$42}
(*) UNDEF
300034CE  F8DF 70F4		ldr r7, [pc, #+244] ; 0xBB8
300034D2  4638     		mov r0, r7

#254			ST		APos {R:10$27}
(*) UINT
300034D4  F8DF 7108		ldr r7, [pc, #+264] ; 0x38000218
300034D8  B082     		sub sp, sp, #8
300034DA  F8CD 0000		str r0, [sp]
300034DE  B200     		sxth r0, r0
300034E0  8038     		strh r0, [r7]
300034E2  F8DD 0000		ldr r0, [sp]
300034E6  B002     		add sp, sp, #8

#255		$$LAB$26:
#256			LD		$$VAR$2
(*) UNDEF
300034E8  F85F 719C		ldr r7, [pc, #-412] ; 0x200003B0
300034EC  7838     		ldrb r0, [r7]

#257			LD		$$VAR$2
(*) UNDEF
300034EE  F85F 71A0		ldr r7, [pc, #-416] ; 0x200003B0
300034F2  7838     		ldrb r0, [r7]

#258			S		timEnableA {R:10$41}
(*) BOOL
300034F4  2800     		cmp r0, #0
300034F6  D009     		beq #0x000012
300034F8  B082     		sub sp, sp, #8
300034FA  F8CD 0000		str r0, [sp]
300034FE  2001     		mov r0, #1
30003500  F8DF 70C4		ldr r7, [pc, #+196] ; 0x2000046D
30003504  7038     		strb r0, [r7]
30003506  F8DD 0000		ldr r0, [sp]
3000350A  B002     		add sp, sp, #8

#259		 
#260			(* Network 11 *)
#261			LD		timEnableA {R:11$0}
(*) UNDEF
3000350C  F8DF 70B8		ldr r7, [pc, #+184] ; 0x2000046D
30003510  7838     		ldrb r0, [r7]

#262			ST		disableA.IN {R:11$2}
(*) BOOL
30003512  F8DF 70BC		ldr r7, [pc, #+188] ; 0x200004BC
30003516  7038     		strb r0, [r7]

#263			MOVE		2000,disableA.PT {R:11$2}
(*) BOOL
30003518  F44F 60FA		mov r0, #2000 ; 2000
3000351C  F8DF 70B4		ldr r7, [pc, #+180] ; 0x200004C0
30003520  6038     		str r0, [r7]

#264			CAL		disableA {R:11$2}
(*) UDINT
30003522  E92D 0021		stmdb sp!, { r0, r5 }
30003526  F8DF 50A4		ldr r5, [pc, #+164] ; 0x200004B8
3000352A  F8DF 40B0		ldr r4, [pc, #+176] ; 0x3000196C
3000352E  F044 0401		orr r4, r4, #1
30003532  47A0     		blx r4
30003534  E8BD 0021		ldmia sp!, { r0, r5 }

#265			LD		disableA.Q {R:11$2}
(*) UNDEF
30003538  F8DF 709C		ldr r7, [pc, #+156] ; 0x200004C4
3000353C  7838     		ldrb r0, [r7]

#266			ST		$$VAR$1
(*) BOOL
3000353E  F85F 71F8		ldr r7, [pc, #-504] ; 0x2000039A
30003542  7038     		strb r0, [r7]

#267			R		timEnableA {R:11$1}
(*) BOOL
30003544  2800     		cmp r0, #0
30003546  D009     		beq #0x000012
30003548  B082     		sub sp, sp, #8
3000354A  F8CD 0000		str r0, [sp]
3000354E  2000     		mov r0, #0
30003550  F8DF 7074		ldr r7, [pc, #+116] ; 0x2000046D
30003554  7038     		strb r0, [r7]
30003556  F8DD 0000		ldr r0, [sp]
3000355A  B002     		add sp, sp, #8

#268			LD		$$VAR$1
(*) UNDEF
3000355C  F85F 7218		ldr r7, [pc, #-536] ; 0x2000039A
30003560  7838     		ldrb r0, [r7]

#269			JMPCN	$$LAB$27
(-) BOOL
30003562  2800     		cmp r0, #0
30003564  D004     		beq #8 ; 0x30003570


#270			LD		0 {R:11$11}
(-) UNDEF
30003568  2000     		mov r0, #0 ; 0

#271			ST		APos {R:11$10}
(*) USINT
3000356A  F8DF 7074		ldr r7, [pc, #+116] ; 0x38000218
3000356E  8038     		strh r0, [r7]

#272		$$LAB$27:
#273			LD		$$VAR$1
(*) UNDEF
30003570  F85F 722C		ldr r7, [pc, #-556] ; 0x2000039A
30003574  7838     		ldrb r0, [r7]

#274			LD		$$VAR$1
(*) UNDEF
30003576  F85F 7230		ldr r7, [pc, #-560] ; 0x2000039A
3000357A  7838     		ldrb r0, [r7]

#275			S		EnableA {R:11$17}
(*) BOOL
3000357C  2800     		cmp r0, #0
3000357E  D009     		beq #0x000012
30003580  B082     		sub sp, sp, #8
30003582  F8CD 0000		str r0, [sp]
30003586  2001     		mov r0, #1
30003588  F85F 7108		ldr r7, [pc, #-264] ; 0x24020671
3000358C  7038     		strb r0, [r7]
3000358E  F8DD 0000		ldr r0, [sp]
30003592  B002     		add sp, sp, #8

#276		 
#277			(* Network 12 *)
#278			LD		auto {R:12$7}
(*) UNDEF
30003594  F85F 7260		ldr r7, [pc, #-608] ; 0x200002A8
30003598  7838     		ldrb r0, [r7]

#279			AND		pickSeq {R:12$5}
(*) BOOL
3000359A  F85F 7250		ldr r7, [pc, #-592] ; 0x2000039B
3000359E  783F     		ldrb r7, [r7]
300035A0  4038     		and r0, r0, r7

#280			AND		cmplt {R:12$2}
(*) BOOL
300035A2  F85F 7264		ldr r7, [pc, #-612] ; 0x200002B9
300035A6  783F     		ldrb r7, [r7]
300035A8  4038     		and r0, r0, r7

#281			R		pickSeq {R:12$4}
(*) BOOL
300035AA  2800     		cmp r0, #0
300035AC  D009     		beq #0x000012
300035AE  B082     		sub sp, sp, #8
300035B0  F8CD 0000		str r0, [sp]
300035B4  2000     		mov r0, #0
300035B6  F85F 726C		ldr r7, [pc, #-620] ; 0x2000039B
300035BA  7038     		strb r0, [r7]
300035BC  F8DD 0000		ldr r0, [sp]
300035C0  B002     		add sp, sp, #8

300035C2  E00F     		b #30

300035C4  00000BB8		; 0x00000BB8
300035C8  2000046D		; 0x2000046D
300035CC  200004B8		; 0x200004B8
300035D0  200004BC		; 0x200004BC
300035D4  200004C0		; 0x200004C0
300035D8  200004C4		; 0x200004C4
300035DC  3000196C		; 0x3000196C
300035E0  FFFFFFFF		; 0x38000218

END_PROGRAM
**************************************************
	List program: Place_SEQ
**************************************************

PROGRAM Place_SEQ

        VAR
pushClearanceX : INT := 17000;
placeHeight : INT := 9500;
pushDistance : INT := 300;
step0 : StepperSEQ;
step1 : StepperSEQ;
step2 : StepperSEQ;
step3 : StepperSEQ;
	END_VAR

        VAR CONSTANT
placeOffsetY : INT := 2100;
placePositionX : INT := 19400;
	END_VAR

END_PROGRAM

#0			{SRC:Place_SEQ}
#1		 
#2		  
#3			(* Network 1 *)
#4			LD		auto {R:1$93}
(*) UNDEF
300035E4  F8DF 7408		ldr r7, [pc, #+1032] ; 0x200002A8
300035E8  7838     		ldrb r0, [r7]

#5			AND		placeSeq {R:1$20}
(*) BOOL
300035EA  F8DF 7414		ldr r7, [pc, #+1044] ; 0x200004CC
300035EE  783F     		ldrb r7, [r7]
300035F0  4038     		and r0, r0, r7

#6			ST		$$VAR$1
(*) BOOL
300035F2  F8DF 7410		ldr r7, [pc, #+1040] ; 0x200004CD
300035F6  7038     		strb r0, [r7]

#7			JMPCN	$$LAB$1
(-) BOOL
300035F8  2800     		cmp r0, #0
300035FA  D009     		beq #18 ; 0x30003610


#8			LD		curSeq {R:1$60}
(*) UNDEF
300035FE  F8DF 73F8		ldr r7, [pc, #+1016] ; 0x200002B6
30003602  F9B7 0000		ldrsh r0, [r7]

#9			EQ		10 {R:1$63}
(*) INT
30003606  280A     		cmp r0, #10
30003608  BF18 2000		nemov r0, #0
3000360C  BF08 2001		eqmov r0, #1

#10		$$LAB$1:
#11			ST		$$VAR$2
(*) BOOL
30003610  F8DF 73F4		ldr r7, [pc, #+1012] ; 0x200004CE
30003614  7038     		strb r0, [r7]

#12			JMPCN	$$LAB$2
(-) BOOL
30003616  2800     		cmp r0, #0
30003618  D04F     		beq #158 ; 0x300036BA


#13			MOVE		placePositionX,step0.XPOSIN {R:1$97}
(*) BOOL
3000361C  F8DF 73CC		ldr r7, [pc, #+972] ; 0x4BC8
30003620  4638     		mov r0, r7
30003622  F8DF 73EC		ldr r7, [pc, #+1004] ; 0x200004D6
30003626  8038     		strh r0, [r7]

#14			MOVE		placePositionsY[placeIndex],step0.YPOSIN {R:1$97}
(*) INT
30003628  F8DF 73C8		ldr r7, [pc, #+968] ; 0x200002AA
3000362C  F9B7 5000		ldrsh r5, [r7]
30003630  F8DF 7400		ldr r7, [pc, #+1024] ; 0x200004F4
30003634  EB07 0745		add r7, r7, r5, lsl #1
30003638  F9B7 0000		ldrsh r0, [r7]
3000363C  F8DF 73D4		ldr r7, [pc, #+980] ; 0x200004D8
30003640  8038     		strh r0, [r7]

#15			MOVE		placeClearZ,step0.ZPOSIN {R:1$97}
(*) INT
30003642  F8DF 73F4		ldr r7, [pc, #+1012] ; 0x200004FC
30003646  F9B7 0000		ldrsh r0, [r7]
3000364A  F8DF 73CC		ldr r7, [pc, #+972] ; 0x200004DA
3000364E  8038     		strh r0, [r7]

#16			MOVE		XPosAct,step0.XPOSACT {R:1$97}
(*) INT
30003650  F8DF 7470		ldr r7, [pc, #+1136] ; 0x38000000
30003654  F9B7 0000		ldrsh r0, [r7]
30003658  F8DF 73C0		ldr r7, [pc, #+960] ; 0x200004DC
3000365C  8038     		strh r0, [r7]

#17			MOVE		YPosAct,step0.YPOSACT {R:1$97}
(*) INT
3000365E  F8DF 7468		ldr r7, [pc, #+1128] ; 0x38000002
30003662  F9B7 0000		ldrsh r0, [r7]
30003666  F8DF 73B8		ldr r7, [pc, #+952] ; 0x200004DE
3000366A  8038     		strh r0, [r7]

#18			MOVE		ZPosAct,step0.ZPOSACT {R:1$97}
(*) INT
3000366C  F8DF 745C		ldr r7, [pc, #+1116] ; 0x38000004
30003670  F9B7 0000		ldrsh r0, [r7]
30003674  F8DF 73AC		ldr r7, [pc, #+940] ; 0x200004E0
30003678  8038     		strh r0, [r7]

#19			CAL		step0 {R:1$97}
(*) INT
3000367A  E92D 0021		stmdb sp!, { r0, r5 }
3000367E  F8DF 538C		ldr r5, [pc, #+908] ; 0x200004D0
30003682  F8DF 443C		ldr r4, [pc, #+1084] ; 0x30001838
30003686  F044 0401		orr r4, r4, #1
3000368A  47A0     		blx r4
3000368C  E8BD 0021		ldmia sp!, { r0, r5 }

#20			MOVE		step0.XPOSOUT,XPos {R:1$97}
(*) INT
30003690  F8DF 7394		ldr r7, [pc, #+916] ; 0x200004E2
30003694  F9B7 0000		ldrsh r0, [r7]
30003698  F8DF 7434		ldr r7, [pc, #+1076] ; 0x38000204
3000369C  8038     		strh r0, [r7]

#21			MOVE		step0.YPOSOUT,YPos {R:1$97}
(*) INT
3000369E  F8DF 738C		ldr r7, [pc, #+908] ; 0x200004E4
300036A2  F9B7 0000		ldrsh r0, [r7]
300036A6  F8DF 742C		ldr r7, [pc, #+1068] ; 0x3800020A
300036AA  8038     		strh r0, [r7]

#22			MOVE		step0.ZPOSOUT,ZPos {R:1$97}
(*) INT
300036AC  F8DF 7380		ldr r7, [pc, #+896] ; 0x200004E6
300036B0  F9B7 0000		ldrsh r0, [r7]
300036B4  F8DF 7420		ldr r7, [pc, #+1056] ; 0x38000210
300036B8  8038     		strh r0, [r7]

#23		$$LAB$2:
#24			LD		$$VAR$2
(*) UNDEF
300036BA  F8DF 734C		ldr r7, [pc, #+844] ; 0x200004CE
300036BE  7838     		ldrb r0, [r7]

#25		 
#26			(* Network 2 *)
#27			LD		auto {R:2$93}
(*) UNDEF
300036C0  F8DF 732C		ldr r7, [pc, #+812] ; 0x200002A8
300036C4  7838     		ldrb r0, [r7]

#28			AND		placeSeq {R:2$20}
(*) BOOL
300036C6  F8DF 7338		ldr r7, [pc, #+824] ; 0x200004CC
300036CA  783F     		ldrb r7, [r7]
300036CC  4038     		and r0, r0, r7

#29			ST		$$VAR$1
(*) BOOL
300036CE  F8DF 7334		ldr r7, [pc, #+820] ; 0x200004CD
300036D2  7038     		strb r0, [r7]

#30			JMPCN	$$LAB$3
(-) BOOL
300036D4  2800     		cmp r0, #0
300036D6  D009     		beq #18 ; 0x300036EC


#31			LD		curSeq {R:2$60}
(*) UNDEF
300036DA  F8DF 731C		ldr r7, [pc, #+796] ; 0x200002B6
300036DE  F9B7 0000		ldrsh r0, [r7]

#32			EQ		20 {R:2$63}
(*) INT
300036E2  2814     		cmp r0, #20
300036E4  BF18 2000		nemov r0, #0
300036E8  BF08 2001		eqmov r0, #1

#33		$$LAB$3:
#34			ST		$$VAR$2
(*) BOOL
300036EC  F8DF 7318		ldr r7, [pc, #+792] ; 0x200004CE
300036F0  7038     		strb r0, [r7]

#35			JMPCN	$$LAB$4
(-) BOOL
300036F2  2800     		cmp r0, #0
300036F4  D04F     		beq #158 ; 0x30003796


#36			MOVE		placePositionX,step1.XPOSIN {R:2$96}
(*) BOOL
300036F8  F8DF 72F0		ldr r7, [pc, #+752] ; 0x4BC8
300036FC  4638     		mov r0, r7
300036FE  F8DF 7344		ldr r7, [pc, #+836] ; 0x20000506
30003702  8038     		strh r0, [r7]

#37			MOVE		placePositionsY[placeIndex],step1.YPOSIN {R:2$96}
(*) INT
30003704  F8DF 72EC		ldr r7, [pc, #+748] ; 0x200002AA
30003708  F9B7 5000		ldrsh r5, [r7]
3000370C  F8DF 7324		ldr r7, [pc, #+804] ; 0x200004F4
30003710  EB07 0745		add r7, r7, r5, lsl #1
30003714  F9B7 0000		ldrsh r0, [r7]
30003718  F8DF 732C		ldr r7, [pc, #+812] ; 0x20000508
3000371C  8038     		strh r0, [r7]

#38			MOVE		placeHeight,step1.ZPOSIN {R:2$96}
(*) INT
3000371E  F8DF 731C		ldr r7, [pc, #+796] ; 0x200004FE
30003722  F9B7 0000		ldrsh r0, [r7]
30003726  F8DF 7324		ldr r7, [pc, #+804] ; 0x2000050A
3000372A  8038     		strh r0, [r7]

#39			MOVE		XPosAct,step1.XPOSACT {R:2$96}
(*) INT
3000372C  F8DF 7394		ldr r7, [pc, #+916] ; 0x38000000
30003730  F9B7 0000		ldrsh r0, [r7]
30003734  F8DF 7318		ldr r7, [pc, #+792] ; 0x2000050C
30003738  8038     		strh r0, [r7]

#40			MOVE		YPosAct,step1.YPOSACT {R:2$96}
(*) INT
3000373A  F8DF 738C		ldr r7, [pc, #+908] ; 0x38000002
3000373E  F9B7 0000		ldrsh r0, [r7]
30003742  F8DF 7310		ldr r7, [pc, #+784] ; 0x2000050E
30003746  8038     		strh r0, [r7]

#41			MOVE		ZPosAct,step1.ZPOSACT {R:2$96}
(*) INT
30003748  F8DF 7380		ldr r7, [pc, #+896] ; 0x38000004
3000374C  F9B7 0000		ldrsh r0, [r7]
30003750  F8DF 7304		ldr r7, [pc, #+772] ; 0x20000510
30003754  8038     		strh r0, [r7]

#42			CAL		step1 {R:2$96}
(*) INT
30003756  E92D 0021		stmdb sp!, { r0, r5 }
3000375A  F8DF 52E4		ldr r5, [pc, #+740] ; 0x20000500
3000375E  F8DF 4360		ldr r4, [pc, #+864] ; 0x30001838
30003762  F044 0401		orr r4, r4, #1
30003766  47A0     		blx r4
30003768  E8BD 0021		ldmia sp!, { r0, r5 }

#43			MOVE		step1.XPOSOUT,XPos {R:2$96}
(*) INT
3000376C  F8DF 72EC		ldr r7, [pc, #+748] ; 0x20000512
30003770  F9B7 0000		ldrsh r0, [r7]
30003774  F8DF 7358		ldr r7, [pc, #+856] ; 0x38000204
30003778  8038     		strh r0, [r7]

#44			MOVE		step1.YPOSOUT,YPos {R:2$96}
(*) INT
3000377A  F8DF 72E4		ldr r7, [pc, #+740] ; 0x20000514
3000377E  F9B7 0000		ldrsh r0, [r7]
30003782  F8DF 7350		ldr r7, [pc, #+848] ; 0x3800020A
30003786  8038     		strh r0, [r7]

#45			MOVE		step1.ZPOSOUT,ZPos {R:2$96}
(*) INT
30003788  F8DF 72D8		ldr r7, [pc, #+728] ; 0x20000516
3000378C  F9B7 0000		ldrsh r0, [r7]
30003790  F8DF 7344		ldr r7, [pc, #+836] ; 0x38000210
30003794  8038     		strh r0, [r7]

#46		$$LAB$4:
#47			LD		$$VAR$2
(*) UNDEF
30003796  F8DF 7270		ldr r7, [pc, #+624] ; 0x200004CE
3000379A  7838     		ldrb r0, [r7]

#48		 
#49			(* Network 3 *)
#50			LD		auto {R:3$94}
(*) UNDEF
3000379C  F8DF 7250		ldr r7, [pc, #+592] ; 0x200002A8
300037A0  7838     		ldrb r0, [r7]

#51			AND		placeSeq {R:3$20}
(*) BOOL
300037A2  F8DF 725C		ldr r7, [pc, #+604] ; 0x200004CC
300037A6  783F     		ldrb r7, [r7]
300037A8  4038     		and r0, r0, r7

#52			ST		$$VAR$1
(*) BOOL
300037AA  F8DF 7258		ldr r7, [pc, #+600] ; 0x200004CD
300037AE  7038     		strb r0, [r7]

#53			JMPCN	$$LAB$5
(-) BOOL
300037B0  2800     		cmp r0, #0
300037B2  D009     		beq #18 ; 0x300037C8


#54			LD		curSeq {R:3$60}
(*) UNDEF
300037B6  F8DF 7240		ldr r7, [pc, #+576] ; 0x200002B6
300037BA  F9B7 0000		ldrsh r0, [r7]

#55			EQ		30 {R:3$63}
(*) INT
300037BE  281E     		cmp r0, #30
300037C0  BF18 2000		nemov r0, #0
300037C4  BF08 2001		eqmov r0, #1

#56		$$LAB$5:
#57			ST		$$VAR$2
(*) BOOL
300037C8  F8DF 723C		ldr r7, [pc, #+572] ; 0x200004CE
300037CC  7038     		strb r0, [r7]

#58			JMPCN	$$LAB$6
(-) BOOL
300037CE  2800     		cmp r0, #0
300037D0  D05A     		beq #180 ; 0x30003888


#59			MOVE		placePositionX,step2.XPOSIN {R:3$98}
(*) BOOL
300037D4  F8DF 7214		ldr r7, [pc, #+532] ; 0x4BC8
300037D8  4638     		mov r0, r7
300037DA  F8DF 7290		ldr r7, [pc, #+656] ; 0x2000052A
300037DE  8038     		strh r0, [r7]

#60			(* $EXPR3$100 := placePositionsY[placeIndex] + placeOffsetY; *)
#61			LD		placePositionsY[placeIndex]	{R:3$100}
(*) UNDEF
300037E0  F8DF 7210		ldr r7, [pc, #+528] ; 0x200002AA
300037E4  F9B7 5000		ldrsh r5, [r7]
300037E8  F8DF 7248		ldr r7, [pc, #+584] ; 0x200004F4
300037EC  EB07 0745		add r7, r7, r5, lsl #1
300037F0  F9B7 0000		ldrsh r0, [r7]

#62			ADD		placeOffsetY	{R:3$100}
(*) INT
300037F4  F8DF 71F0		ldr r7, [pc, #+496] ; 0x834
300037F8  463F     		mov r7, r7
300037FA  19C0     		add r0, r0, r7

#63			ST		$EXPR3$100	{R:3$100}
(*) INT
300037FC  F8DF 72B8		ldr r7, [pc, #+696] ; 0x20000B4A
30003800  8038     		strh r0, [r7]

#64			MOVE		$EXPR3$100,step2.YPOSIN {R:3$98}
(*) INT
30003802  F8DF 72B4		ldr r7, [pc, #+692] ; 0x20000B4A
30003806  F9B7 0000		ldrsh r0, [r7]
3000380A  F8DF 7264		ldr r7, [pc, #+612] ; 0x2000052C
3000380E  8038     		strh r0, [r7]

#65			MOVE		placeHeight,step2.ZPOSIN {R:3$98}
(*) INT
30003810  F8DF 7228		ldr r7, [pc, #+552] ; 0x200004FE
30003814  F9B7 0000		ldrsh r0, [r7]
30003818  F8DF 7258		ldr r7, [pc, #+600] ; 0x2000052E
3000381C  8038     		strh r0, [r7]

#66			MOVE		XPosAct,step2.XPOSACT {R:3$98}
(*) INT
3000381E  F8DF 72A4		ldr r7, [pc, #+676] ; 0x38000000
30003822  F9B7 0000		ldrsh r0, [r7]
30003826  F8DF 7250		ldr r7, [pc, #+592] ; 0x20000530
3000382A  8038     		strh r0, [r7]

#67			MOVE		YPosAct,step2.YPOSACT {R:3$98}
(*) INT
3000382C  F8DF 7298		ldr r7, [pc, #+664] ; 0x38000002
30003830  F9B7 0000		ldrsh r0, [r7]
30003834  F8DF 7244		ldr r7, [pc, #+580] ; 0x20000532
30003838  8038     		strh r0, [r7]

#68			MOVE		ZPosAct,step2.ZPOSACT {R:3$98}
(*) INT
3000383A  F8DF 7290		ldr r7, [pc, #+656] ; 0x38000004
3000383E  F9B7 0000		ldrsh r0, [r7]
30003842  F8DF 723C		ldr r7, [pc, #+572] ; 0x20000534
30003846  8038     		strh r0, [r7]

#69			CAL		step2 {R:3$98}
(*) INT
30003848  E92D 0021		stmdb sp!, { r0, r5 }
3000384C  F8DF 5218		ldr r5, [pc, #+536] ; 0x20000524
30003850  F8DF 426C		ldr r4, [pc, #+620] ; 0x30001838
30003854  F044 0401		orr r4, r4, #1
30003858  47A0     		blx r4
3000385A  E8BD 0021		ldmia sp!, { r0, r5 }

#70			MOVE		step2.XPOSOUT,XPos {R:3$98}
(*) INT
3000385E  F8DF 7224		ldr r7, [pc, #+548] ; 0x20000536
30003862  F9B7 0000		ldrsh r0, [r7]
30003866  F8DF 7268		ldr r7, [pc, #+616] ; 0x38000204
3000386A  8038     		strh r0, [r7]

#71			MOVE		step2.YPOSOUT,YPos {R:3$98}
(*) INT
3000386C  F8DF 7218		ldr r7, [pc, #+536] ; 0x20000538
30003870  F9B7 0000		ldrsh r0, [r7]
30003874  F8DF 725C		ldr r7, [pc, #+604] ; 0x3800020A
30003878  8038     		strh r0, [r7]

#72			MOVE		step2.ZPOSOUT,ZPos {R:3$98}
(*) INT
3000387A  F8DF 7210		ldr r7, [pc, #+528] ; 0x2000053A
3000387E  F9B7 0000		ldrsh r0, [r7]
30003882  F8DF 7254		ldr r7, [pc, #+596] ; 0x38000210
30003886  8038     		strh r0, [r7]

#73		$$LAB$6:
#74			LD		$$VAR$2
(*) UNDEF
30003888  F8DF 717C		ldr r7, [pc, #+380] ; 0x200004CE
3000388C  7838     		ldrb r0, [r7]

#75		 
#76			(* Network 4 *)
#77			LD		auto {R:4$94}
(*) UNDEF
3000388E  F8DF 7160		ldr r7, [pc, #+352] ; 0x200002A8
30003892  7838     		ldrb r0, [r7]

#78			AND		placeSeq {R:4$20}
(*) BOOL
30003894  F8DF 7168		ldr r7, [pc, #+360] ; 0x200004CC
30003898  783F     		ldrb r7, [r7]
3000389A  4038     		and r0, r0, r7

#79			ST		$$VAR$1
(*) BOOL
3000389C  F8DF 7164		ldr r7, [pc, #+356] ; 0x200004CD
300038A0  7038     		strb r0, [r7]

#80			JMPCN	$$LAB$7
(-) BOOL
300038A2  2800     		cmp r0, #0
300038A4  D009     		beq #18 ; 0x300038BA


#81			LD		curSeq {R:4$60}
(*) UNDEF
300038A8  F8DF 714C		ldr r7, [pc, #+332] ; 0x200002B6
300038AC  F9B7 0000		ldrsh r0, [r7]

#82			EQ		40 {R:4$63}
(*) INT
300038B0  2828     		cmp r0, #40
300038B2  BF18 2000		nemov r0, #0
300038B6  BF08 2001		eqmov r0, #1

#83		$$LAB$7:
#84			ST		$$VAR$2
(*) BOOL
300038BA  F8DF 714C		ldr r7, [pc, #+332] ; 0x200004CE
300038BE  7038     		strb r0, [r7]

#85			JMPCN	$$LAB$8
(-) BOOL
300038C0  2800     		cmp r0, #0
300038C2  D05A     		beq #180 ; 0x3000397A


#86			MOVE		placePositionX,step3.XPOSIN {R:4$99}
(*) BOOL
300038C6  F8DF 7124		ldr r7, [pc, #+292] ; 0x4BC8
300038CA  4638     		mov r0, r7
300038CC  F8DF 71C4		ldr r7, [pc, #+452] ; 0x20000552
300038D0  8038     		strh r0, [r7]

#87			(* $EXPR4$101 := placePositionsY[placeIndex] + placeOffsetY; *)
#88			LD		placePositionsY[placeIndex]	{R:4$101}
(*) UNDEF
300038D2  F8DF 7120		ldr r7, [pc, #+288] ; 0x200002AA
300038D6  F9B7 5000		ldrsh r5, [r7]
300038DA  F8DF 7158		ldr r7, [pc, #+344] ; 0x200004F4
300038DE  EB07 0745		add r7, r7, r5, lsl #1
300038E2  F9B7 0000		ldrsh r0, [r7]

#89			ADD		placeOffsetY	{R:4$101}
(*) INT
300038E6  F8DF 7100		ldr r7, [pc, #+256] ; 0x834
300038EA  463F     		mov r7, r7
300038EC  19C0     		add r0, r0, r7

#90			ST		$EXPR4$101	{R:4$101}
(*) INT
300038EE  F8DF 71CC		ldr r7, [pc, #+460] ; 0x20000B4C
300038F2  8038     		strh r0, [r7]

#91			MOVE		$EXPR4$101,step3.YPOSIN {R:4$99}
(*) INT
300038F4  F8DF 71C4		ldr r7, [pc, #+452] ; 0x20000B4C
300038F8  F9B7 0000		ldrsh r0, [r7]
300038FC  F8DF 7198		ldr r7, [pc, #+408] ; 0x20000554
30003900  8038     		strh r0, [r7]

#92			MOVE		placeClearZ,step3.ZPOSIN {R:4$99}
(*) INT
30003902  F8DF 7134		ldr r7, [pc, #+308] ; 0x200004FC
30003906  F9B7 0000		ldrsh r0, [r7]
3000390A  F8DF 7190		ldr r7, [pc, #+400] ; 0x20000556
3000390E  8038     		strh r0, [r7]

#93			MOVE		XPosAct,step3.XPOSACT {R:4$99}
(*) INT
30003910  F8DF 71B0		ldr r7, [pc, #+432] ; 0x38000000
30003914  F9B7 0000		ldrsh r0, [r7]
30003918  F8DF 7184		ldr r7, [pc, #+388] ; 0x20000558
3000391C  8038     		strh r0, [r7]

#94			MOVE		YPosAct,step3.YPOSACT {R:4$99}
(*) INT
3000391E  F8DF 71A8		ldr r7, [pc, #+424] ; 0x38000002
30003922  F9B7 0000		ldrsh r0, [r7]
30003926  F8DF 717C		ldr r7, [pc, #+380] ; 0x2000055A
3000392A  8038     		strh r0, [r7]

#95			MOVE		ZPosAct,step3.ZPOSACT {R:4$99}
(*) INT
3000392C  F8DF 719C		ldr r7, [pc, #+412] ; 0x38000004
30003930  F9B7 0000		ldrsh r0, [r7]
30003934  F8DF 7170		ldr r7, [pc, #+368] ; 0x2000055C
30003938  8038     		strh r0, [r7]

#96			CAL		step3 {R:4$99}
(*) INT
3000393A  E92D 0021		stmdb sp!, { r0, r5 }
3000393E  F8DF 5150		ldr r5, [pc, #+336] ; 0x2000054C
30003942  F8DF 417C		ldr r4, [pc, #+380] ; 0x30001838
30003946  F044 0401		orr r4, r4, #1
3000394A  47A0     		blx r4
3000394C  E8BD 0021		ldmia sp!, { r0, r5 }

#97			MOVE		step3.XPOSOUT,XPos {R:4$99}
(*) INT
30003950  F8DF 7158		ldr r7, [pc, #+344] ; 0x2000055E
30003954  F9B7 0000		ldrsh r0, [r7]
30003958  F8DF 7174		ldr r7, [pc, #+372] ; 0x38000204
3000395C  8038     		strh r0, [r7]

#98			MOVE		step3.YPOSOUT,YPos {R:4$99}
(*) INT
3000395E  F8DF 7150		ldr r7, [pc, #+336] ; 0x20000560
30003962  F9B7 0000		ldrsh r0, [r7]
30003966  F8DF 716C		ldr r7, [pc, #+364] ; 0x3800020A
3000396A  8038     		strh r0, [r7]

#99			MOVE		step3.ZPOSOUT,ZPos {R:4$99}
(*) INT
3000396C  F8DF 7144		ldr r7, [pc, #+324] ; 0x20000562
30003970  F9B7 0000		ldrsh r0, [r7]
30003974  F8DF 7160		ldr r7, [pc, #+352] ; 0x38000210
30003978  8038     		strh r0, [r7]

#100		$$LAB$8:
#101			LD		$$VAR$2
(*) UNDEF
3000397A  F8DF 708C		ldr r7, [pc, #+140] ; 0x200004CE
3000397E  7838     		ldrb r0, [r7]

#102		 
#103			(* Network 5 *)
#104			LD		auto {R:5$17}
(*) UNDEF
30003980  F8DF 706C		ldr r7, [pc, #+108] ; 0x200002A8
30003984  7838     		ldrb r0, [r7]

#105			AND		placeSeq {R:5$18}
(*) BOOL
30003986  F8DF 7078		ldr r7, [pc, #+120] ; 0x200004CC
3000398A  783F     		ldrb r7, [r7]
3000398C  4038     		and r0, r0, r7

#106			ST		$$VAR$1
(*) BOOL
3000398E  F8DF 7074		ldr r7, [pc, #+116] ; 0x200004CD
30003992  7038     		strb r0, [r7]

#107			JMPCN	$$LAB$9
(-) BOOL
30003994  2800     		cmp r0, #0
30003996  D00C     		beq #24 ; 0x300039B2


#108			LD		curSeq {R:5$24}
(*) UNDEF
3000399A  F8DF 705C		ldr r7, [pc, #+92] ; 0x200002B6
3000399E  F9B7 0000		ldrsh r0, [r7]

#109			EQ		50 {R:5$27}
(*) INT
300039A2  2832     		cmp r0, #50
300039A4  BF18 2000		nemov r0, #0
300039A8  BF08 2001		eqmov r0, #1

#110			ST		cmplt {R:5$37}
(*) BOOL
300039AC  F8DF 704C		ldr r7, [pc, #+76] ; 0x200002B9
300039B0  7038     		strb r0, [r7]

#111		$$LAB$9:
#112			LD		$$VAR$1
(*) UNDEF
300039B2  F8DF 7050		ldr r7, [pc, #+80] ; 0x200004CD
300039B6  7838     		ldrb r0, [r7]

#113		 
#114			(* Network 6 *)
#115			LD		auto {R:6$7}
(*) UNDEF
300039B8  F8DF 7034		ldr r7, [pc, #+52] ; 0x200002A8
300039BC  7838     		ldrb r0, [r7]

#116			AND		placeSeq {R:6$5}
(*) BOOL
300039BE  F8DF 7040		ldr r7, [pc, #+64] ; 0x200004CC
300039C2  783F     		ldrb r7, [r7]
300039C4  4038     		and r0, r0, r7

#117			AND		cmplt {R:6$2}
(*) BOOL
300039C6  F8DF 7034		ldr r7, [pc, #+52] ; 0x200002B9
300039CA  783F     		ldrb r7, [r7]
300039CC  4038     		and r0, r0, r7

#118			R		placeSeq {R:6$4}
(*) BOOL
300039CE  2800     		cmp r0, #0
300039D0  D009     		beq #0x000012
300039D2  B082     		sub sp, sp, #8
300039D4  F8CD 0000		str r0, [sp]
300039D8  2000     		mov r0, #0
300039DA  F8DF 7024		ldr r7, [pc, #+36] ; 0x200004CC
300039DE  7038     		strb r0, [r7]
300039E0  F8DD 0000		ldr r0, [sp]
300039E4  B002     		add sp, sp, #8

300039E6  E079     		b #242

300039E8  00000834		; 0x00000834
300039EC  00004BC8		; 0x00004BC8
300039F0  200002A8		; 0x200002A8
300039F4  200002AA		; 0x200002AA
300039F8  200002B6		; 0x200002B6
300039FC  200002B9		; 0x200002B9
30003A00  200004CC		; 0x200004CC
30003A04  200004CD		; 0x200004CD
30003A08  200004CE		; 0x200004CE
30003A0C  200004D0		; 0x200004D0
30003A10  200004D6		; 0x200004D6
30003A14  200004D8		; 0x200004D8
30003A18  200004DA		; 0x200004DA
30003A1C  200004DC		; 0x200004DC
30003A20  200004DE		; 0x200004DE
30003A24  200004E0		; 0x200004E0
30003A28  200004E2		; 0x200004E2
30003A2C  200004E4		; 0x200004E4
30003A30  200004E6		; 0x200004E6
30003A34  200004F4		; 0x200004F4
30003A38  200004FC		; 0x200004FC
30003A3C  200004FE		; 0x200004FE
30003A40  20000500		; 0x20000500
30003A44  20000506		; 0x20000506
30003A48  20000508		; 0x20000508
30003A4C  2000050A		; 0x2000050A
30003A50  2000050C		; 0x2000050C
30003A54  2000050E		; 0x2000050E
30003A58  20000510		; 0x20000510
30003A5C  20000512		; 0x20000512
30003A60  20000514		; 0x20000514
30003A64  20000516		; 0x20000516
30003A68  20000524		; 0x20000524
30003A6C  2000052A		; 0x2000052A
30003A70  2000052C		; 0x2000052C
30003A74  2000052E		; 0x2000052E
30003A78  20000530		; 0x20000530
30003A7C  20000532		; 0x20000532
30003A80  20000534		; 0x20000534
30003A84  20000536		; 0x20000536
30003A88  20000538		; 0x20000538
30003A8C  2000053A		; 0x2000053A
30003A90  2000054C		; 0x2000054C
30003A94  20000552		; 0x20000552
30003A98  20000554		; 0x20000554
30003A9C  20000556		; 0x20000556
30003AA0  20000558		; 0x20000558
30003AA4  2000055A		; 0x2000055A
30003AA8  2000055C		; 0x2000055C
30003AAC  2000055E		; 0x2000055E
30003AB0  20000560		; 0x20000560
30003AB4  20000562		; 0x20000562
30003AB8  20000B4A		; 0x20000B4A
30003ABC  20000B4C		; 0x20000B4C
30003AC0  30001838		; 0x30001838
30003AC4  FFFFFFFF		; 0x38000000
30003AC8  FFFFFFFF		; 0x38000002
30003ACC  FFFFFFFF		; 0x38000004
30003AD0  FFFFFFFF		; 0x38000204
30003AD4  FFFFFFFF		; 0x3800020A
30003AD8  FFFFFFFF		; 0x38000210

END_PROGRAM
**************************************************
	List program: Push_SEQ
**************************************************

PROGRAM Push_SEQ

        VAR
step0 : StepperSEQ;
step1 : StepperSEQ;
step2 : StepperSEQ;
step3 : StepperSEQ;
step4 : StepperSEQ;
step5 : StepperSEQ;
step6 : StepperSEQ;
step7 : StepperSEQ;
solTim : TON;
test1 : BOOL;
pushOffset : INT := 150;
	END_VAR

        VAR CONSTANT
pushClearanceX : INT := 16350;
solDur : INT := 1500;
	END_VAR

END_PROGRAM

#0			{SRC:Push_SEQ}
#1		 
#2		 	(* P/N contacts management *)
#3			LD		cmplt
(*) UNDEF
30003ADC  F8DF 783C		ldr r7, [pc, #+2108] ; 0x200002B9
30003AE0  7838     		ldrb r0, [r7]

#4			ANDN	$$MEMPC$cmplt
(*) BOOL
30003AE2  F8DF 783C		ldr r7, [pc, #+2108] ; 0x200004CF
30003AE6  783F     		ldrb r7, [r7]
30003AE8  2F00     		cmp r7, #0
30003AEA  BF08 2701		eqmov r7, #1
30003AEE  BF18 2700		nemov r7, #0
30003AF2  4038     		and r0, r0, r7

#5			ST		$$PC$cmplt
(*) BOOL
30003AF4  F8DF 7834		ldr r7, [pc, #+2100] ; 0x20000570
30003AF8  7038     		strb r0, [r7]

#6			LD		cmplt
(*) UNDEF
30003AFA  F8DF 7820		ldr r7, [pc, #+2080] ; 0x200002B9
30003AFE  7838     		ldrb r0, [r7]

#7			ST		$$MEMPC$cmplt
(*) BOOL
30003B00  F8DF 781C		ldr r7, [pc, #+2076] ; 0x200004CF
30003B04  7038     		strb r0, [r7]

#8		 
#9			(* Network 1 *)
#10			LD		auto {R:1$95}
(*) UNDEF
30003B06  F8DF 7808		ldr r7, [pc, #+2056] ; 0x200002A8
30003B0A  7838     		ldrb r0, [r7]

#11			AND		pushSeq {R:1$20}
(*) BOOL
30003B0C  F8DF 7820		ldr r7, [pc, #+2080] ; 0x20000571
30003B10  783F     		ldrb r7, [r7]
30003B12  4038     		and r0, r0, r7

#12			ST		$$VAR$1
(*) BOOL
30003B14  F8DF 781C		ldr r7, [pc, #+2076] ; 0x20000572
30003B18  7038     		strb r0, [r7]

#13			JMPCN	$$LAB$1
(-) BOOL
30003B1A  2800     		cmp r0, #0
30003B1C  D009     		beq #18 ; 0x30003B32


#14			LD		curSeq {R:1$60}
(*) UNDEF
30003B20  F8DF 77F4		ldr r7, [pc, #+2036] ; 0x200002B6
30003B24  F9B7 0000		ldrsh r0, [r7]

#15			EQ		10 {R:1$63}
(*) INT
30003B28  280A     		cmp r0, #10
30003B2A  BF18 2000		nemov r0, #0
30003B2E  BF08 2001		eqmov r0, #1

#16		$$LAB$1:
#17			ST		$$VAR$2
(*) BOOL
30003B32  F8DF 7804		ldr r7, [pc, #+2052] ; 0x20000573
30003B36  7038     		strb r0, [r7]

#18			JMPCN	$$LAB$2
(-) BOOL
30003B38  2800     		cmp r0, #0
30003B3A  D05B     		beq #182 ; 0x30003BF4


#19			MOVE		pushClearanceX,step0.XPOSIN {R:1$100}
(*) BOOL
30003B3E  F8DF 77BC		ldr r7, [pc, #+1980] ; 0x3FDE
30003B42  4638     		mov r0, r7
30003B44  F8DF 77F8		ldr r7, [pc, #+2040] ; 0x2000057A
30003B48  8038     		strh r0, [r7]

#20			(* $EXPR1$102 := placePositionsY[placeIndex] + pushOffset; *)
#21			LD		placePositionsY[placeIndex]	{R:1$102}
(*) UNDEF
30003B4A  F8DF 77C8		ldr r7, [pc, #+1992] ; 0x200002AA
30003B4E  F9B7 5000		ldrsh r5, [r7]
30003B52  F8DF 77D0		ldr r7, [pc, #+2000] ; 0x200004F4
30003B56  EB07 0745		add r7, r7, r5, lsl #1
30003B5A  F9B7 0000		ldrsh r0, [r7]

#22			ADD		pushOffset	{R:1$102}
(*) INT
30003B5E  F8DF 7804		ldr r7, [pc, #+2052] ; 0x20000598
30003B62  F9B7 7000		ldrsh r7, [r7]
30003B66  19C0     		add r0, r0, r7

#23			ST		$EXPR1$102	{R:1$102}
(*) INT
30003B68  F8DF 7900		ldr r7, [pc, #+2304] ; 0x20000B4E
30003B6C  8038     		strh r0, [r7]

#24			MOVE		$EXPR1$102,step0.YPOSIN {R:1$100}
(*) INT
30003B6E  F8DF 78FC		ldr r7, [pc, #+2300] ; 0x20000B4E
30003B72  F9B7 0000		ldrsh r0, [r7]
30003B76  F8DF 77CC		ldr r7, [pc, #+1996] ; 0x2000057C
30003B7A  8038     		strh r0, [r7]

#25			MOVE		placeClearZ,step0.ZPOSIN {R:1$100}
(*) INT
30003B7C  F8DF 77A8		ldr r7, [pc, #+1960] ; 0x200004FC
30003B80  F9B7 0000		ldrsh r0, [r7]
30003B84  F8DF 77C0		ldr r7, [pc, #+1984] ; 0x2000057E
30003B88  8038     		strh r0, [r7]

#26			MOVE		XPosAct,step0.XPOSACT {R:1$100}
(*) INT
30003B8A  F8DF 7908		ldr r7, [pc, #+2312] ; 0x38000000
30003B8E  F9B7 0000		ldrsh r0, [r7]
30003B92  F8DF 77B8		ldr r7, [pc, #+1976] ; 0x20000580
30003B96  8038     		strh r0, [r7]

#27			MOVE		YPosAct,step0.YPOSACT {R:1$100}
(*) INT
30003B98  F8DF 78FC		ldr r7, [pc, #+2300] ; 0x38000002
30003B9C  F9B7 0000		ldrsh r0, [r7]
30003BA0  F8DF 77AC		ldr r7, [pc, #+1964] ; 0x20000582
30003BA4  8038     		strh r0, [r7]

#28			MOVE		ZPosAct,step0.ZPOSACT {R:1$100}
(*) INT
30003BA6  F8DF 78F4		ldr r7, [pc, #+2292] ; 0x38000004
30003BAA  F9B7 0000		ldrsh r0, [r7]
30003BAE  F8DF 77A4		ldr r7, [pc, #+1956] ; 0x20000584
30003BB2  8038     		strh r0, [r7]

#29			CAL		step0 {R:1$100}
(*) INT
30003BB4  E92D 0021		stmdb sp!, { r0, r5 }
30003BB8  F8DF 5780		ldr r5, [pc, #+1920] ; 0x20000574
30003BBC  F8DF 48CC		ldr r4, [pc, #+2252] ; 0x30001838
30003BC0  F044 0401		orr r4, r4, #1
30003BC4  47A0     		blx r4
30003BC6  E8BD 0021		ldmia sp!, { r0, r5 }

#30			MOVE		step0.XPOSOUT,XPos {R:1$100}
(*) INT
30003BCA  F8DF 778C		ldr r7, [pc, #+1932] ; 0x20000586
30003BCE  F9B7 0000		ldrsh r0, [r7]
30003BD2  F8DF 78CC		ldr r7, [pc, #+2252] ; 0x38000204
30003BD6  8038     		strh r0, [r7]

#31			MOVE		step0.YPOSOUT,YPos {R:1$100}
(*) INT
30003BD8  F8DF 7780		ldr r7, [pc, #+1920] ; 0x20000588
30003BDC  F9B7 0000		ldrsh r0, [r7]
30003BE0  F8DF 78C0		ldr r7, [pc, #+2240] ; 0x3800020A
30003BE4  8038     		strh r0, [r7]

#32			MOVE		step0.ZPOSOUT,ZPos {R:1$100}
(*) INT
30003BE6  F8DF 7778		ldr r7, [pc, #+1912] ; 0x2000058A
30003BEA  F9B7 0000		ldrsh r0, [r7]
30003BEE  F8DF 78B8		ldr r7, [pc, #+2232] ; 0x38000210
30003BF2  8038     		strh r0, [r7]

#33		$$LAB$2:
#34			LD		$$VAR$2
(*) UNDEF
30003BF4  F8DF 7740		ldr r7, [pc, #+1856] ; 0x20000573
30003BF8  7838     		ldrb r0, [r7]

#35		 
#36			(* Network 2 *)
#37			LD		auto {R:2$95}
(*) UNDEF
30003BFA  F8DF 7714		ldr r7, [pc, #+1812] ; 0x200002A8
30003BFE  7838     		ldrb r0, [r7]

#38			AND		pushSeq {R:2$20}
(*) BOOL
30003C00  F8DF 772C		ldr r7, [pc, #+1836] ; 0x20000571
30003C04  783F     		ldrb r7, [r7]
30003C06  4038     		and r0, r0, r7

#39			ST		$$VAR$1
(*) BOOL
30003C08  F8DF 7728		ldr r7, [pc, #+1832] ; 0x20000572
30003C0C  7038     		strb r0, [r7]

#40			JMPCN	$$LAB$3
(-) BOOL
30003C0E  2800     		cmp r0, #0
30003C10  D009     		beq #18 ; 0x30003C26


#41			LD		curSeq {R:2$60}
(*) UNDEF
30003C14  F8DF 7700		ldr r7, [pc, #+1792] ; 0x200002B6
30003C18  F9B7 0000		ldrsh r0, [r7]

#42			EQ		20 {R:2$63}
(*) INT
30003C1C  2814     		cmp r0, #20
30003C1E  BF18 2000		nemov r0, #0
30003C22  BF08 2001		eqmov r0, #1

#43		$$LAB$3:
#44			ST		$$VAR$2
(*) BOOL
30003C26  F8DF 7710		ldr r7, [pc, #+1808] ; 0x20000573
30003C2A  7038     		strb r0, [r7]

#45			JMPCN	$$LAB$4
(-) BOOL
30003C2C  2800     		cmp r0, #0
30003C2E  D061     		beq #194 ; 0x30003CF4


#46			MOVE		pushClearanceX,step1.XPOSIN {R:2$103}
(*) BOOL
30003C32  F8DF 76C8		ldr r7, [pc, #+1736] ; 0x3FDE
30003C36  4638     		mov r0, r7
30003C38  F8DF 7730		ldr r7, [pc, #+1840] ; 0x200005A2
30003C3C  8038     		strh r0, [r7]

#47			(* $EXPR2$105 := placePositionsY[placeIndex] + pushOffset; *)
#48			LD		placePositionsY[placeIndex]	{R:2$105}
(*) UNDEF
30003C3E  F8DF 76D4		ldr r7, [pc, #+1748] ; 0x200002AA
30003C42  F9B7 5000		ldrsh r5, [r7]
30003C46  F8DF 76DC		ldr r7, [pc, #+1756] ; 0x200004F4
30003C4A  EB07 0745		add r7, r7, r5, lsl #1
30003C4E  F9B7 0000		ldrsh r0, [r7]

#49			ADD		pushOffset	{R:2$105}
(*) INT
30003C52  F8DF 7710		ldr r7, [pc, #+1808] ; 0x20000598
30003C56  F9B7 7000		ldrsh r7, [r7]
30003C5A  19C0     		add r0, r0, r7

#50			ST		$EXPR2$105	{R:2$105}
(*) INT
30003C5C  F8DF 7810		ldr r7, [pc, #+2064] ; 0x20000B50
30003C60  8038     		strh r0, [r7]

#51			MOVE		$EXPR2$105,step1.YPOSIN {R:2$103}
(*) INT
30003C62  F8DF 780C		ldr r7, [pc, #+2060] ; 0x20000B50
30003C66  F9B7 0000		ldrsh r0, [r7]
30003C6A  F8DF 7704		ldr r7, [pc, #+1796] ; 0x200005A4
30003C6E  8038     		strh r0, [r7]

#52			MOVE		12000,step1.ZPOSIN {R:2$103}
(*) INT
30003C70  F8DF 7680		ldr r7, [pc, #+1664] ; 0x2EE0
30003C74  4638     		mov r0, r7
30003C76  F8DF 76FC		ldr r7, [pc, #+1788] ; 0x200005A6
30003C7A  B082     		sub sp, sp, #8
30003C7C  F8CD 0000		str r0, [sp]
30003C80  B200     		sxth r0, r0
30003C82  8038     		strh r0, [r7]
30003C84  F8DD 0000		ldr r0, [sp]
30003C88  B002     		add sp, sp, #8

#53			MOVE		XPosAct,step1.XPOSACT {R:2$103}
(*) UINT
30003C8A  F8DF 7808		ldr r7, [pc, #+2056] ; 0x38000000
30003C8E  F9B7 0000		ldrsh r0, [r7]
30003C92  F8DF 76E4		ldr r7, [pc, #+1764] ; 0x200005A8
30003C96  8038     		strh r0, [r7]

#54			MOVE		YPosAct,step1.YPOSACT {R:2$103}
(*) INT
30003C98  F8DF 77FC		ldr r7, [pc, #+2044] ; 0x38000002
30003C9C  F9B7 0000		ldrsh r0, [r7]
30003CA0  F8DF 76D8		ldr r7, [pc, #+1752] ; 0x200005AA
30003CA4  8038     		strh r0, [r7]

#55			MOVE		ZPosAct,step1.ZPOSACT {R:2$103}
(*) INT
30003CA6  F8DF 77F4		ldr r7, [pc, #+2036] ; 0x38000004
30003CAA  F9B7 0000		ldrsh r0, [r7]
30003CAE  F8DF 76D0		ldr r7, [pc, #+1744] ; 0x200005AC
30003CB2  8038     		strh r0, [r7]

#56			CAL		step1 {R:2$103}
(*) INT
30003CB4  E92D 0021		stmdb sp!, { r0, r5 }
30003CB8  F8DF 56AC		ldr r5, [pc, #+1708] ; 0x2000059C
30003CBC  F8DF 47CC		ldr r4, [pc, #+1996] ; 0x30001838
30003CC0  F044 0401		orr r4, r4, #1
30003CC4  47A0     		blx r4
30003CC6  E8BD 0021		ldmia sp!, { r0, r5 }

#57			MOVE		step1.XPOSOUT,XPos {R:2$103}
(*) INT
30003CCA  F8DF 76B8		ldr r7, [pc, #+1720] ; 0x200005AE
30003CCE  F9B7 0000		ldrsh r0, [r7]
30003CD2  F8DF 77CC		ldr r7, [pc, #+1996] ; 0x38000204
30003CD6  8038     		strh r0, [r7]

#58			MOVE		step1.YPOSOUT,YPos {R:2$103}
(*) INT
30003CD8  F8DF 76AC		ldr r7, [pc, #+1708] ; 0x200005B0
30003CDC  F9B7 0000		ldrsh r0, [r7]
30003CE0  F8DF 77C0		ldr r7, [pc, #+1984] ; 0x3800020A
30003CE4  8038     		strh r0, [r7]

#59			MOVE		step1.ZPOSOUT,ZPos {R:2$103}
(*) INT
30003CE6  F8DF 76A4		ldr r7, [pc, #+1700] ; 0x200005B2
30003CEA  F9B7 0000		ldrsh r0, [r7]
30003CEE  F8DF 77B8		ldr r7, [pc, #+1976] ; 0x38000210
30003CF2  8038     		strh r0, [r7]

#60		$$LAB$4:
#61			LD		$$VAR$2
(*) UNDEF
30003CF4  F8DF 7640		ldr r7, [pc, #+1600] ; 0x20000573
30003CF8  7838     		ldrb r0, [r7]

#62		 
#63			(* Network 3 *)
#64			LD		auto {R:3$95}
(*) UNDEF
30003CFA  F8DF 7614		ldr r7, [pc, #+1556] ; 0x200002A8
30003CFE  7838     		ldrb r0, [r7]

#65			AND		pushSeq {R:3$20}
(*) BOOL
30003D00  F8DF 762C		ldr r7, [pc, #+1580] ; 0x20000571
30003D04  783F     		ldrb r7, [r7]
30003D06  4038     		and r0, r0, r7

#66			ST		$$VAR$1
(*) BOOL
30003D08  F8DF 7628		ldr r7, [pc, #+1576] ; 0x20000572
30003D0C  7038     		strb r0, [r7]

#67			JMPCN	$$LAB$5
(-) BOOL
30003D0E  2800     		cmp r0, #0
30003D10  D009     		beq #18 ; 0x30003D26


#68			LD		curSeq {R:3$60}
(*) UNDEF
30003D14  F8DF 7600		ldr r7, [pc, #+1536] ; 0x200002B6
30003D18  F9B7 0000		ldrsh r0, [r7]

#69			EQ		30 {R:3$63}
(*) INT
30003D1C  281E     		cmp r0, #30
30003D1E  BF18 2000		nemov r0, #0
30003D22  BF08 2001		eqmov r0, #1

#70		$$LAB$5:
#71			ST		$$VAR$2
(*) BOOL
30003D26  F8DF 7610		ldr r7, [pc, #+1552] ; 0x20000573
30003D2A  7038     		strb r0, [r7]

#72			JMPCN	$$LAB$6
(-) BOOL
30003D2C  2800     		cmp r0, #0
30003D2E  D068     		beq #208 ; 0x30003E02


#73			MOVE		17100,step2.XPOSIN {R:3$102}
(*) BOOL
30003D32  F8DF 75D0		ldr r7, [pc, #+1488] ; 0x42CC
30003D36  4638     		mov r0, r7
30003D38  F8DF 7658		ldr r7, [pc, #+1624] ; 0x200005CA
30003D3C  B082     		sub sp, sp, #8
30003D3E  F8CD 0000		str r0, [sp]
30003D42  B200     		sxth r0, r0
30003D44  8038     		strh r0, [r7]
30003D46  F8DD 0000		ldr r0, [sp]
30003D4A  B002     		add sp, sp, #8

#74			(* $EXPR3$104 := placePositionsY[placeIndex] + pushOffset; *)
#75			LD		placePositionsY[placeIndex]	{R:3$104}
(*) UNDEF
30003D4C  F8DF 75C4		ldr r7, [pc, #+1476] ; 0x200002AA
30003D50  F9B7 5000		ldrsh r5, [r7]
30003D54  F8DF 75CC		ldr r7, [pc, #+1484] ; 0x200004F4
30003D58  EB07 0745		add r7, r7, r5, lsl #1
30003D5C  F9B7 0000		ldrsh r0, [r7]

#76			ADD		pushOffset	{R:3$104}
(*) INT
30003D60  F8DF 7600		ldr r7, [pc, #+1536] ; 0x20000598
30003D64  F9B7 7000		ldrsh r7, [r7]
30003D68  19C0     		add r0, r0, r7

#77			ST		$EXPR3$104	{R:3$104}
(*) INT
30003D6A  F8DF 7708		ldr r7, [pc, #+1800] ; 0x20000B52
30003D6E  8038     		strh r0, [r7]

#78			MOVE		$EXPR3$104,step2.YPOSIN {R:3$102}
(*) INT
30003D70  F8DF 7700		ldr r7, [pc, #+1792] ; 0x20000B52
30003D74  F9B7 0000		ldrsh r0, [r7]
30003D78  F8DF 761C		ldr r7, [pc, #+1564] ; 0x200005CC
30003D7C  8038     		strh r0, [r7]

#79			MOVE		12000,step2.ZPOSIN {R:3$102}
(*) INT
30003D7E  F8DF 7574		ldr r7, [pc, #+1396] ; 0x2EE0
30003D82  4638     		mov r0, r7
30003D84  F8DF 7614		ldr r7, [pc, #+1556] ; 0x200005CE
30003D88  B082     		sub sp, sp, #8
30003D8A  F8CD 0000		str r0, [sp]
30003D8E  B200     		sxth r0, r0
30003D90  8038     		strh r0, [r7]
30003D92  F8DD 0000		ldr r0, [sp]
30003D96  B002     		add sp, sp, #8

#80			MOVE		XPosAct,step2.XPOSACT {R:3$102}
(*) UINT
30003D98  F8DF 76F8		ldr r7, [pc, #+1784] ; 0x38000000
30003D9C  F9B7 0000		ldrsh r0, [r7]
30003DA0  F8DF 75FC		ldr r7, [pc, #+1532] ; 0x200005D0
30003DA4  8038     		strh r0, [r7]

#81			MOVE		YPosAct,step2.YPOSACT {R:3$102}
(*) INT
30003DA6  F8DF 76F0		ldr r7, [pc, #+1776] ; 0x38000002
30003DAA  F9B7 0000		ldrsh r0, [r7]
30003DAE  F8DF 75F4		ldr r7, [pc, #+1524] ; 0x200005D2
30003DB2  8038     		strh r0, [r7]

#82			MOVE		ZPosAct,step2.ZPOSACT {R:3$102}
(*) INT
30003DB4  F8DF 76E4		ldr r7, [pc, #+1764] ; 0x38000004
30003DB8  F9B7 0000		ldrsh r0, [r7]
30003DBC  F8DF 75E8		ldr r7, [pc, #+1512] ; 0x200005D4
30003DC0  8038     		strh r0, [r7]

#83			CAL		step2 {R:3$102}
(*) INT
30003DC2  E92D 0021		stmdb sp!, { r0, r5 }
30003DC6  F8DF 55C8		ldr r5, [pc, #+1480] ; 0x200005C4
30003DCA  F8DF 46C0		ldr r4, [pc, #+1728] ; 0x30001838
30003DCE  F044 0401		orr r4, r4, #1
30003DD2  47A0     		blx r4
30003DD4  E8BD 0021		ldmia sp!, { r0, r5 }

#84			MOVE		step2.XPOSOUT,XPos {R:3$102}
(*) INT
30003DD8  F8DF 75D0		ldr r7, [pc, #+1488] ; 0x200005D6
30003DDC  F9B7 0000		ldrsh r0, [r7]
30003DE0  F8DF 76BC		ldr r7, [pc, #+1724] ; 0x38000204
30003DE4  8038     		strh r0, [r7]

#85			MOVE		step2.YPOSOUT,YPos {R:3$102}
(*) INT
30003DE6  F8DF 75C8		ldr r7, [pc, #+1480] ; 0x200005D8
30003DEA  F9B7 0000		ldrsh r0, [r7]
30003DEE  F8DF 76B4		ldr r7, [pc, #+1716] ; 0x3800020A
30003DF2  8038     		strh r0, [r7]

#86			MOVE		step2.ZPOSOUT,ZPos {R:3$102}
(*) INT
30003DF4  F8DF 75BC		ldr r7, [pc, #+1468] ; 0x200005DA
30003DF8  F9B7 0000		ldrsh r0, [r7]
30003DFC  F8DF 76A8		ldr r7, [pc, #+1704] ; 0x38000210
30003E00  8038     		strh r0, [r7]

#87		$$LAB$6:
#88			LD		$$VAR$2
(*) UNDEF
30003E02  F8DF 7534		ldr r7, [pc, #+1332] ; 0x20000573
30003E06  7838     		ldrb r0, [r7]

#89		 
#90			(* Network 4 *)
#91			LD		auto {R:4$95}
(*) UNDEF
30003E08  F8DF 7504		ldr r7, [pc, #+1284] ; 0x200002A8
30003E0C  7838     		ldrb r0, [r7]

#92			AND		pushSeq {R:4$20}
(*) BOOL
30003E0E  F8DF 7520		ldr r7, [pc, #+1312] ; 0x20000571
30003E12  783F     		ldrb r7, [r7]
30003E14  4038     		and r0, r0, r7

#93			ST		$$VAR$1
(*) BOOL
30003E16  F8DF 751C		ldr r7, [pc, #+1308] ; 0x20000572
30003E1A  7038     		strb r0, [r7]

#94			JMPCN	$$LAB$7
(-) BOOL
30003E1C  2800     		cmp r0, #0
30003E1E  D009     		beq #18 ; 0x30003E34


#95			LD		curSeq {R:4$60}
(*) UNDEF
30003E22  F8DF 74F4		ldr r7, [pc, #+1268] ; 0x200002B6
30003E26  F9B7 0000		ldrsh r0, [r7]

#96			EQ		40 {R:4$63}
(*) INT
30003E2A  2828     		cmp r0, #40
30003E2C  BF18 2000		nemov r0, #0
30003E30  BF08 2001		eqmov r0, #1

#97		$$LAB$7:
#98			ST		$$VAR$2
(*) BOOL
30003E34  F8DF 7500		ldr r7, [pc, #+1280] ; 0x20000573
30003E38  7038     		strb r0, [r7]

#99			JMPCN	$$LAB$8
(-) BOOL
30003E3A  2800     		cmp r0, #0
30003E3C  D068     		beq #208 ; 0x30003F10


#100			MOVE		17050,step3.XPOSIN {R:4$102}
(*) BOOL
30003E40  F8DF 74BC		ldr r7, [pc, #+1212] ; 0x429A
30003E44  4638     		mov r0, r7
30003E46  F8DF 7574		ldr r7, [pc, #+1396] ; 0x200005EE
30003E4A  B082     		sub sp, sp, #8
30003E4C  F8CD 0000		str r0, [sp]
30003E50  B200     		sxth r0, r0
30003E52  8038     		strh r0, [r7]
30003E54  F8DD 0000		ldr r0, [sp]
30003E58  B002     		add sp, sp, #8

#101			(* $EXPR4$104 := placePositionsY[placeIndex] + pushOffset; *)
#102			LD		placePositionsY[placeIndex]	{R:4$104}
(*) UNDEF
30003E5A  F8DF 74B8		ldr r7, [pc, #+1208] ; 0x200002AA
30003E5E  F9B7 5000		ldrsh r5, [r7]
30003E62  F8DF 74C0		ldr r7, [pc, #+1216] ; 0x200004F4
30003E66  EB07 0745		add r7, r7, r5, lsl #1
30003E6A  F9B7 0000		ldrsh r0, [r7]

#103			ADD		pushOffset	{R:4$104}
(*) INT
30003E6E  F8DF 74F4		ldr r7, [pc, #+1268] ; 0x20000598
30003E72  F9B7 7000		ldrsh r7, [r7]
30003E76  19C0     		add r0, r0, r7

#104			ST		$EXPR4$104	{R:4$104}
(*) INT
30003E78  F8DF 75FC		ldr r7, [pc, #+1532] ; 0x20000B54
30003E7C  8038     		strh r0, [r7]

#105			MOVE		$EXPR4$104,step3.YPOSIN {R:4$102}
(*) INT
30003E7E  F8DF 75F8		ldr r7, [pc, #+1528] ; 0x20000B54
30003E82  F9B7 0000		ldrsh r0, [r7]
30003E86  F8DF 7538		ldr r7, [pc, #+1336] ; 0x200005F0
30003E8A  8038     		strh r0, [r7]

#106			MOVE		9500,step3.ZPOSIN {R:4$102}
(*) INT
30003E8C  F8DF 7460		ldr r7, [pc, #+1120] ; 0x251C
30003E90  4638     		mov r0, r7
30003E92  F8DF 7530		ldr r7, [pc, #+1328] ; 0x200005F2
30003E96  B082     		sub sp, sp, #8
30003E98  F8CD 0000		str r0, [sp]
30003E9C  B200     		sxth r0, r0
30003E9E  8038     		strh r0, [r7]
30003EA0  F8DD 0000		ldr r0, [sp]
30003EA4  B002     		add sp, sp, #8

#107			MOVE		XPosAct,step3.XPOSACT {R:4$102}
(*) UINT
30003EA6  F8DF 75EC		ldr r7, [pc, #+1516] ; 0x38000000
30003EAA  F9B7 0000		ldrsh r0, [r7]
30003EAE  F8DF 7518		ldr r7, [pc, #+1304] ; 0x200005F4
30003EB2  8038     		strh r0, [r7]

#108			MOVE		YPosAct,step3.YPOSACT {R:4$102}
(*) INT
30003EB4  F8DF 75E0		ldr r7, [pc, #+1504] ; 0x38000002
30003EB8  F9B7 0000		ldrsh r0, [r7]
30003EBC  F8DF 750C		ldr r7, [pc, #+1292] ; 0x200005F6
30003EC0  8038     		strh r0, [r7]

#109			MOVE		ZPosAct,step3.ZPOSACT {R:4$102}
(*) INT
30003EC2  F8DF 75D8		ldr r7, [pc, #+1496] ; 0x38000004
30003EC6  F9B7 0000		ldrsh r0, [r7]
30003ECA  F8DF 7504		ldr r7, [pc, #+1284] ; 0x200005F8
30003ECE  8038     		strh r0, [r7]

#110			CAL		step3 {R:4$102}
(*) INT
30003ED0  E92D 0021		stmdb sp!, { r0, r5 }
30003ED4  F8DF 54E0		ldr r5, [pc, #+1248] ; 0x200005E8
30003ED8  F8DF 45B0		ldr r4, [pc, #+1456] ; 0x30001838
30003EDC  F044 0401		orr r4, r4, #1
30003EE0  47A0     		blx r4
30003EE2  E8BD 0021		ldmia sp!, { r0, r5 }

#111			MOVE		step3.XPOSOUT,XPos {R:4$102}
(*) INT
30003EE6  F8DF 74EC		ldr r7, [pc, #+1260] ; 0x200005FA
30003EEA  F9B7 0000		ldrsh r0, [r7]
30003EEE  F8DF 75B0		ldr r7, [pc, #+1456] ; 0x38000204
30003EF2  8038     		strh r0, [r7]

#112			MOVE		step3.YPOSOUT,YPos {R:4$102}
(*) INT
30003EF4  F8DF 74E0		ldr r7, [pc, #+1248] ; 0x200005FC
30003EF8  F9B7 0000		ldrsh r0, [r7]
30003EFC  F8DF 75A4		ldr r7, [pc, #+1444] ; 0x3800020A
30003F00  8038     		strh r0, [r7]

#113			MOVE		step3.ZPOSOUT,ZPos {R:4$102}
(*) INT
30003F02  F8DF 74D8		ldr r7, [pc, #+1240] ; 0x200005FE
30003F06  F9B7 0000		ldrsh r0, [r7]
30003F0A  F8DF 759C		ldr r7, [pc, #+1436] ; 0x38000210
30003F0E  8038     		strh r0, [r7]

#114		$$LAB$8:
#115			LD		$$VAR$2
(*) UNDEF
30003F10  F8DF 7424		ldr r7, [pc, #+1060] ; 0x20000573
30003F14  7838     		ldrb r0, [r7]

#116		 
#117			(* Network 5 *)
#118			LD		auto {R:5$95}
(*) UNDEF
30003F16  F8DF 73F8		ldr r7, [pc, #+1016] ; 0x200002A8
30003F1A  7838     		ldrb r0, [r7]

#119			AND		pushSeq {R:5$20}
(*) BOOL
30003F1C  F8DF 7410		ldr r7, [pc, #+1040] ; 0x20000571
30003F20  783F     		ldrb r7, [r7]
30003F22  4038     		and r0, r0, r7

#120			ST		$$VAR$1
(*) BOOL
30003F24  F8DF 740C		ldr r7, [pc, #+1036] ; 0x20000572
30003F28  7038     		strb r0, [r7]

#121			JMPCN	$$LAB$9
(-) BOOL
30003F2A  2800     		cmp r0, #0
30003F2C  D009     		beq #18 ; 0x30003F42


#122			LD		curSeq {R:5$60}
(*) UNDEF
30003F30  F8DF 73E4		ldr r7, [pc, #+996] ; 0x200002B6
30003F34  F9B7 0000		ldrsh r0, [r7]

#123			EQ		50 {R:5$63}
(*) INT
30003F38  2832     		cmp r0, #50
30003F3A  BF18 2000		nemov r0, #0
30003F3E  BF08 2001		eqmov r0, #1

#124		$$LAB$9:
#125			ST		$$VAR$2
(*) BOOL
30003F42  F8DF 73F4		ldr r7, [pc, #+1012] ; 0x20000573
30003F46  7038     		strb r0, [r7]

#126			JMPCN	$$LAB$10
(-) BOOL
30003F48  2800     		cmp r0, #0
30003F4A  D068     		beq #208 ; 0x3000401E


#127			MOVE		17450,step4.XPOSIN {R:5$102}
(*) BOOL
30003F4E  F8DF 73B8		ldr r7, [pc, #+952] ; 0x442A
30003F52  4638     		mov r0, r7
30003F54  F8DF 748C		ldr r7, [pc, #+1164] ; 0x20000616
30003F58  B082     		sub sp, sp, #8
30003F5A  F8CD 0000		str r0, [sp]
30003F5E  B200     		sxth r0, r0
30003F60  8038     		strh r0, [r7]
30003F62  F8DD 0000		ldr r0, [sp]
30003F66  B002     		add sp, sp, #8

#128			(* $EXPR5$104 := placePositionsY[placeIndex] + pushOffset; *)
#129			LD		placePositionsY[placeIndex]	{R:5$104}
(*) UNDEF
30003F68  F8DF 73A8		ldr r7, [pc, #+936] ; 0x200002AA
30003F6C  F9B7 5000		ldrsh r5, [r7]
30003F70  F8DF 73B0		ldr r7, [pc, #+944] ; 0x200004F4
30003F74  EB07 0745		add r7, r7, r5, lsl #1
30003F78  F9B7 0000		ldrsh r0, [r7]

#130			ADD		pushOffset	{R:5$104}
(*) INT
30003F7C  F8DF 73E4		ldr r7, [pc, #+996] ; 0x20000598
30003F80  F9B7 7000		ldrsh r7, [r7]
30003F84  19C0     		add r0, r0, r7

#131			ST		$EXPR5$104	{R:5$104}
(*) INT
30003F86  F8DF 74F4		ldr r7, [pc, #+1268] ; 0x20000B56
30003F8A  8038     		strh r0, [r7]

#132			MOVE		$EXPR5$104,step4.YPOSIN {R:5$102}
(*) INT
30003F8C  F8DF 74EC		ldr r7, [pc, #+1260] ; 0x20000B56
30003F90  F9B7 0000		ldrsh r0, [r7]
30003F94  F8DF 7450		ldr r7, [pc, #+1104] ; 0x20000618
30003F98  8038     		strh r0, [r7]

#133			MOVE		9500,step4.ZPOSIN {R:5$102}
(*) INT
30003F9A  F8DF 7354		ldr r7, [pc, #+852] ; 0x251C
30003F9E  4638     		mov r0, r7
30003FA0  F8DF 7448		ldr r7, [pc, #+1096] ; 0x2000061A
30003FA4  B082     		sub sp, sp, #8
30003FA6  F8CD 0000		str r0, [sp]
30003FAA  B200     		sxth r0, r0
30003FAC  8038     		strh r0, [r7]
30003FAE  F8DD 0000		ldr r0, [sp]
30003FB2  B002     		add sp, sp, #8

#134			MOVE		XPosAct,step4.XPOSACT {R:5$102}
(*) UINT
30003FB4  F8DF 74DC		ldr r7, [pc, #+1244] ; 0x38000000
30003FB8  F9B7 0000		ldrsh r0, [r7]
30003FBC  F8DF 7430		ldr r7, [pc, #+1072] ; 0x2000061C
30003FC0  8038     		strh r0, [r7]

#135			MOVE		YPosAct,step4.YPOSACT {R:5$102}
(*) INT
30003FC2  F8DF 74D4		ldr r7, [pc, #+1236] ; 0x38000002
30003FC6  F9B7 0000		ldrsh r0, [r7]
30003FCA  F8DF 7428		ldr r7, [pc, #+1064] ; 0x2000061E
30003FCE  8038     		strh r0, [r7]

#136			MOVE		ZPosAct,step4.ZPOSACT {R:5$102}
(*) INT
30003FD0  F8DF 74C8		ldr r7, [pc, #+1224] ; 0x38000004
30003FD4  F9B7 0000		ldrsh r0, [r7]
30003FD8  F8DF 741C		ldr r7, [pc, #+1052] ; 0x20000620
30003FDC  8038     		strh r0, [r7]

#137			CAL		step4 {R:5$102}
(*) INT
30003FDE  E92D 0021		stmdb sp!, { r0, r5 }
30003FE2  F8DF 53FC		ldr r5, [pc, #+1020] ; 0x20000610
30003FE6  F8DF 44A4		ldr r4, [pc, #+1188] ; 0x30001838
30003FEA  F044 0401		orr r4, r4, #1
30003FEE  47A0     		blx r4
30003FF0  E8BD 0021		ldmia sp!, { r0, r5 }

#138			MOVE		step4.XPOSOUT,XPos {R:5$102}
(*) INT
30003FF4  F8DF 7404		ldr r7, [pc, #+1028] ; 0x20000622
30003FF8  F9B7 0000		ldrsh r0, [r7]
30003FFC  F8DF 74A0		ldr r7, [pc, #+1184] ; 0x38000204
30004000  8038     		strh r0, [r7]

#139			MOVE		step4.YPOSOUT,YPos {R:5$102}
(*) INT
30004002  F8DF 73FC		ldr r7, [pc, #+1020] ; 0x20000624
30004006  F9B7 0000		ldrsh r0, [r7]
3000400A  F8DF 7498		ldr r7, [pc, #+1176] ; 0x3800020A
3000400E  8038     		strh r0, [r7]

#140			MOVE		step4.ZPOSOUT,ZPos {R:5$102}
(*) INT
30004010  F8DF 73F0		ldr r7, [pc, #+1008] ; 0x20000626
30004014  F9B7 0000		ldrsh r0, [r7]
30004018  F8DF 748C		ldr r7, [pc, #+1164] ; 0x38000210
3000401C  8038     		strh r0, [r7]

#141		$$LAB$10:
#142			LD		$$VAR$2
(*) UNDEF
3000401E  F8DF 7318		ldr r7, [pc, #+792] ; 0x20000573
30004022  7838     		ldrb r0, [r7]

#143		 
#144			(* Network 6 *)
#145			LD		auto {R:6$95}
(*) UNDEF
30004024  F8DF 72E8		ldr r7, [pc, #+744] ; 0x200002A8
30004028  7838     		ldrb r0, [r7]

#146			AND		pushSeq {R:6$20}
(*) BOOL
3000402A  F8DF 7304		ldr r7, [pc, #+772] ; 0x20000571
3000402E  783F     		ldrb r7, [r7]
30004030  4038     		and r0, r0, r7

#147			ST		$$VAR$1
(*) BOOL
30004032  F8DF 7300		ldr r7, [pc, #+768] ; 0x20000572
30004036  7038     		strb r0, [r7]

#148			JMPCN	$$LAB$11
(-) BOOL
30004038  2800     		cmp r0, #0
3000403A  D009     		beq #18 ; 0x30004050


#149			LD		curSeq {R:6$60}
(*) UNDEF
3000403E  F8DF 72D8		ldr r7, [pc, #+728] ; 0x200002B6
30004042  F9B7 0000		ldrsh r0, [r7]

#150			EQ		60 {R:6$63}
(*) INT
30004046  283C     		cmp r0, #60
30004048  BF18 2000		nemov r0, #0
3000404C  BF08 2001		eqmov r0, #1

#151		$$LAB$11:
#152			ST		$$VAR$2
(*) BOOL
30004050  F8DF 72E4		ldr r7, [pc, #+740] ; 0x20000573
30004054  7038     		strb r0, [r7]

#153			JMPCN	$$LAB$12
(-) BOOL
30004056  2800     		cmp r0, #0
30004058  D062     		beq #196 ; 0x30004120


#154			MOVE		17450,step5.XPOSIN {R:6$135}
(*) BOOL
3000405C  F8DF 72A8		ldr r7, [pc, #+680] ; 0x442A
30004060  4638     		mov r0, r7
30004062  F8DF 73A8		ldr r7, [pc, #+936] ; 0x2000063A
30004066  B082     		sub sp, sp, #8
30004068  F8CD 0000		str r0, [sp]
3000406C  B200     		sxth r0, r0
3000406E  8038     		strh r0, [r7]
30004070  F8DD 0000		ldr r0, [sp]
30004074  B002     		add sp, sp, #8

#155			(* $EXPR6$137 := placePositionsY[placeIndex] + pushOffset; *)
#156			LD		placePositionsY[placeIndex]	{R:6$137}
(*) UNDEF
30004076  F8DF 729C		ldr r7, [pc, #+668] ; 0x200002AA
3000407A  F9B7 5000		ldrsh r5, [r7]
3000407E  F8DF 72A4		ldr r7, [pc, #+676] ; 0x200004F4
30004082  EB07 0745		add r7, r7, r5, lsl #1
30004086  F9B7 0000		ldrsh r0, [r7]

#157			ADD		pushOffset	{R:6$137}
(*) INT
3000408A  F8DF 72D8		ldr r7, [pc, #+728] ; 0x20000598
3000408E  F9B7 7000		ldrsh r7, [r7]
30004092  19C0     		add r0, r0, r7

#158			ST		$EXPR6$137	{R:6$137}
(*) INT
30004094  F8DF 73E8		ldr r7, [pc, #+1000] ; 0x20000B58
30004098  8038     		strh r0, [r7]

#159			MOVE		$EXPR6$137,step5.YPOSIN {R:6$135}
(*) INT
3000409A  F8DF 73E4		ldr r7, [pc, #+996] ; 0x20000B58
3000409E  F9B7 0000		ldrsh r0, [r7]
300040A2  F8DF 736C		ldr r7, [pc, #+876] ; 0x2000063C
300040A6  8038     		strh r0, [r7]

#160			MOVE		placeClearZ,step5.ZPOSIN {R:6$135}
(*) INT
300040A8  F8DF 727C		ldr r7, [pc, #+636] ; 0x200004FC
300040AC  F9B7 0000		ldrsh r0, [r7]
300040B0  F8DF 7360		ldr r7, [pc, #+864] ; 0x2000063E
300040B4  8038     		strh r0, [r7]

#161			MOVE		XPosAct,step5.XPOSACT {R:6$135}
(*) INT
300040B6  F8DF 73DC		ldr r7, [pc, #+988] ; 0x38000000
300040BA  F9B7 0000		ldrsh r0, [r7]
300040BE  F8DF 7358		ldr r7, [pc, #+856] ; 0x20000640
300040C2  8038     		strh r0, [r7]

#162			MOVE		YPosAct,step5.YPOSACT {R:6$135}
(*) INT
300040C4  F8DF 73D0		ldr r7, [pc, #+976] ; 0x38000002
300040C8  F9B7 0000		ldrsh r0, [r7]
300040CC  F8DF 734C		ldr r7, [pc, #+844] ; 0x20000642
300040D0  8038     		strh r0, [r7]

#163			MOVE		ZPosAct,step5.ZPOSACT {R:6$135}
(*) INT
300040D2  F8DF 73C8		ldr r7, [pc, #+968] ; 0x38000004
300040D6  F9B7 0000		ldrsh r0, [r7]
300040DA  F8DF 7344		ldr r7, [pc, #+836] ; 0x20000644
300040DE  8038     		strh r0, [r7]

#164			CAL		step5 {R:6$135}
(*) INT
300040E0  E92D 0021		stmdb sp!, { r0, r5 }
300040E4  F8DF 5320		ldr r5, [pc, #+800] ; 0x20000634
300040E8  F8DF 43A0		ldr r4, [pc, #+928] ; 0x30001838
300040EC  F044 0401		orr r4, r4, #1
300040F0  47A0     		blx r4
300040F2  E8BD 0021		ldmia sp!, { r0, r5 }

#165			MOVE		step5.XPOSOUT,XPos {R:6$135}
(*) INT
300040F6  F8DF 732C		ldr r7, [pc, #+812] ; 0x20000646
300040FA  F9B7 0000		ldrsh r0, [r7]
300040FE  F8DF 73A0		ldr r7, [pc, #+928] ; 0x38000204
30004102  8038     		strh r0, [r7]

#166			MOVE		step5.YPOSOUT,YPos {R:6$135}
(*) INT
30004104  F8DF 7320		ldr r7, [pc, #+800] ; 0x20000648
30004108  F9B7 0000		ldrsh r0, [r7]
3000410C  F8DF 7394		ldr r7, [pc, #+916] ; 0x3800020A
30004110  8038     		strh r0, [r7]

#167			MOVE		step5.ZPOSOUT,ZPos {R:6$135}
(*) INT
30004112  F8DF 7318		ldr r7, [pc, #+792] ; 0x2000064A
30004116  F9B7 0000		ldrsh r0, [r7]
3000411A  F8DF 738C		ldr r7, [pc, #+908] ; 0x38000210
3000411E  8038     		strh r0, [r7]

#168		$$LAB$12:
#169			LD		$$VAR$2
(*) UNDEF
30004120  F8DF 7214		ldr r7, [pc, #+532] ; 0x20000573
30004124  7838     		ldrb r0, [r7]

#170		 
#171			(* Network 7 *)
#172			LD		auto {R:7$95}
(*) UNDEF
30004126  F8DF 71E8		ldr r7, [pc, #+488] ; 0x200002A8
3000412A  7838     		ldrb r0, [r7]

#173			AND		pushSeq {R:7$20}
(*) BOOL
3000412C  F8DF 7200		ldr r7, [pc, #+512] ; 0x20000571
30004130  783F     		ldrb r7, [r7]
30004132  4038     		and r0, r0, r7

#174			ST		$$VAR$1
(*) BOOL
30004134  F8DF 71FC		ldr r7, [pc, #+508] ; 0x20000572
30004138  7038     		strb r0, [r7]

#175			JMPCN	$$LAB$13
(-) BOOL
3000413A  2800     		cmp r0, #0
3000413C  D009     		beq #18 ; 0x30004152


#176			LD		curSeq {R:7$60}
(*) UNDEF
30004140  F8DF 71D4		ldr r7, [pc, #+468] ; 0x200002B6
30004144  F9B7 0000		ldrsh r0, [r7]

#177			EQ		60 {R:7$63}
(*) INT
30004148  283C     		cmp r0, #60
3000414A  BF18 2000		nemov r0, #0
3000414E  BF08 2001		eqmov r0, #1

#178		$$LAB$13:
#179			ST		solTim.IN {R:7$135}
(*) BOOL
30004152  F8DF 730C		ldr r7, [pc, #+780] ; 0x20000734
30004156  7038     		strb r0, [r7]

#180			MOVE		solDur,solTim.PT {R:7$135}
(*) BOOL
30004158  F8DF 7190		ldr r7, [pc, #+400] ; 0x5DC
3000415C  4638     		mov r0, r7
3000415E  F8DF 7304		ldr r7, [pc, #+772] ; 0x20000738
30004162  6038     		str r0, [r7]

#181			CAL		solTim {R:7$135}
(*) UDINT
30004164  E92D 0021		stmdb sp!, { r0, r5 }
30004168  F8DF 52F0		ldr r5, [pc, #+752] ; 0x20000730
3000416C  F8DF 4320		ldr r4, [pc, #+800] ; 0x3000196C
30004170  F044 0401		orr r4, r4, #1
30004174  47A0     		blx r4
30004176  E8BD 0021		ldmia sp!, { r0, r5 }

#182			LD		solTim.Q {R:7$135}
(*) UNDEF
3000417A  F8DF 72EC		ldr r7, [pc, #+748] ; 0x2000073C
3000417E  7838     		ldrb r0, [r7]

#183			ST		Solenoids[placeIndex] {R:7$118}
(*) BOOL
30004180  F8DF 7190		ldr r7, [pc, #+400] ; 0x200002AA
30004184  F9B7 5000		ldrsh r5, [r7]
30004188  F8DF 72FC		ldr r7, [pc, #+764] ; 0x24020672
3000418C  EB07 0705		add r7, r7, r5, lsl #0
30004190  7038     		strb r0, [r7]

#184		 
#185			(* Network 8 *)
#186			LD		auto {R:8$95}
(*) UNDEF
30004192  F8DF 717C		ldr r7, [pc, #+380] ; 0x200002A8
30004196  7838     		ldrb r0, [r7]

#187			AND		pushSeq {R:8$20}
(*) BOOL
30004198  F8DF 7194		ldr r7, [pc, #+404] ; 0x20000571
3000419C  783F     		ldrb r7, [r7]
3000419E  4038     		and r0, r0, r7

#188			ST		$$VAR$1
(*) BOOL
300041A0  F8DF 7190		ldr r7, [pc, #+400] ; 0x20000572
300041A4  7038     		strb r0, [r7]

#189			JMPCN	$$LAB$14
(-) BOOL
300041A6  2800     		cmp r0, #0
300041A8  D009     		beq #18 ; 0x300041BE


#190			LD		curSeq {R:8$60}
(*) UNDEF
300041AC  F8DF 7168		ldr r7, [pc, #+360] ; 0x200002B6
300041B0  F9B7 0000		ldrsh r0, [r7]

#191			EQ		70 {R:8$63}
(*) INT
300041B4  2846     		cmp r0, #70
300041B6  BF18 2000		nemov r0, #0
300041BA  BF08 2001		eqmov r0, #1

#192		$$LAB$14:
#193			ST		$$VAR$2
(*) BOOL
300041BE  F8DF 7178		ldr r7, [pc, #+376] ; 0x20000573
300041C2  7038     		strb r0, [r7]

#194			JMPCN	$$LAB$15
(-) BOOL
300041C4  2800     		cmp r0, #0
300041C6  D061     		beq #194 ; 0x3000428C


#195			MOVE		19900,step6.XPOSIN {R:8$121}
(*) BOOL
300041CA  F8DF 7140		ldr r7, [pc, #+320] ; 0x4DBC
300041CE  4638     		mov r0, r7
300041D0  F8DF 7260		ldr r7, [pc, #+608] ; 0x2000067A
300041D4  B082     		sub sp, sp, #8
300041D6  F8CD 0000		str r0, [sp]
300041DA  B200     		sxth r0, r0
300041DC  8038     		strh r0, [r7]
300041DE  F8DD 0000		ldr r0, [sp]
300041E2  B002     		add sp, sp, #8

#196			(* $EXPR8$123 := placePositionsY[placeIndex] + pushOffset; *)
#197			LD		placePositionsY[placeIndex]	{R:8$123}
(*) UNDEF
300041E4  F8DF 712C		ldr r7, [pc, #+300] ; 0x200002AA
300041E8  F9B7 5000		ldrsh r5, [r7]
300041EC  F8DF 7134		ldr r7, [pc, #+308] ; 0x200004F4
300041F0  EB07 0745		add r7, r7, r5, lsl #1
300041F4  F9B7 0000		ldrsh r0, [r7]

#198			ADD		pushOffset	{R:8$123}
(*) INT
300041F8  F8DF 7168		ldr r7, [pc, #+360] ; 0x20000598
300041FC  F9B7 7000		ldrsh r7, [r7]
30004200  19C0     		add r0, r0, r7

#199			ST		$EXPR8$123	{R:8$123}
(*) INT
30004202  F8DF 7280		ldr r7, [pc, #+640] ; 0x20000B5A
30004206  8038     		strh r0, [r7]

#200			MOVE		$EXPR8$123,step6.YPOSIN {R:8$121}
(*) INT
30004208  F8DF 7278		ldr r7, [pc, #+632] ; 0x20000B5A
3000420C  F9B7 0000		ldrsh r0, [r7]
30004210  F8DF 7224		ldr r7, [pc, #+548] ; 0x2000067C
30004214  8038     		strh r0, [r7]

#201			MOVE		ZTop,step6.ZPOSIN {R:8$121}
(*) INT
30004216  F8DF 70E0		ldr r7, [pc, #+224] ; 0x39D0
3000421A  4638     		mov r0, r7
3000421C  F8DF 721C		ldr r7, [pc, #+540] ; 0x2000067E
30004220  8038     		strh r0, [r7]

#202			MOVE		XPosAct,step6.XPOSACT {R:8$121}
(*) INT
30004222  F8DF 7270		ldr r7, [pc, #+624] ; 0x38000000
30004226  F9B7 0000		ldrsh r0, [r7]
3000422A  F8DF 7214		ldr r7, [pc, #+532] ; 0x20000680
3000422E  8038     		strh r0, [r7]

#203			MOVE		YPosAct,step6.YPOSACT {R:8$121}
(*) INT
30004230  F8DF 7264		ldr r7, [pc, #+612] ; 0x38000002
30004234  F9B7 0000		ldrsh r0, [r7]
30004238  F8DF 7208		ldr r7, [pc, #+520] ; 0x20000682
3000423C  8038     		strh r0, [r7]

#204			MOVE		ZPosAct,step6.ZPOSACT {R:8$121}
(*) INT
3000423E  F8DF 725C		ldr r7, [pc, #+604] ; 0x38000004
30004242  F9B7 0000		ldrsh r0, [r7]
30004246  F8DF 7200		ldr r7, [pc, #+512] ; 0x20000684
3000424A  8038     		strh r0, [r7]

#205			CAL		step6 {R:8$121}
(*) INT
3000424C  E92D 0021		stmdb sp!, { r0, r5 }
30004250  F8DF 51DC		ldr r5, [pc, #+476] ; 0x20000674
30004254  F8DF 4234		ldr r4, [pc, #+564] ; 0x30001838
30004258  F044 0401		orr r4, r4, #1
3000425C  47A0     		blx r4
3000425E  E8BD 0021		ldmia sp!, { r0, r5 }

#206			MOVE		step6.XPOSOUT,XPos {R:8$121}
(*) INT
30004262  F8DF 71E8		ldr r7, [pc, #+488] ; 0x20000686
30004266  F9B7 0000		ldrsh r0, [r7]
3000426A  F8DF 7234		ldr r7, [pc, #+564] ; 0x38000204
3000426E  8038     		strh r0, [r7]

#207			MOVE		step6.YPOSOUT,YPos {R:8$121}
(*) INT
30004270  F8DF 71DC		ldr r7, [pc, #+476] ; 0x20000688
30004274  F9B7 0000		ldrsh r0, [r7]
30004278  F8DF 7228		ldr r7, [pc, #+552] ; 0x3800020A
3000427C  8038     		strh r0, [r7]

#208			MOVE		step6.ZPOSOUT,ZPos {R:8$121}
(*) INT
3000427E  F8DF 71D4		ldr r7, [pc, #+468] ; 0x2000068A
30004282  F9B7 0000		ldrsh r0, [r7]
30004286  F8DF 7220		ldr r7, [pc, #+544] ; 0x38000210
3000428A  8038     		strh r0, [r7]

#209		$$LAB$15:
#210			LD		$$VAR$2
(*) UNDEF
3000428C  F8DF 70A8		ldr r7, [pc, #+168] ; 0x20000573
30004290  7838     		ldrb r0, [r7]

#211		 
#212			(* Network 9 *)
#213			LD		auto {R:9$95}
(*) UNDEF
30004292  F8DF 707C		ldr r7, [pc, #+124] ; 0x200002A8
30004296  7838     		ldrb r0, [r7]

#214			AND		pushSeq {R:9$20}
(*) BOOL
30004298  F8DF 7094		ldr r7, [pc, #+148] ; 0x20000571
3000429C  783F     		ldrb r7, [r7]
3000429E  4038     		and r0, r0, r7

#215			ST		$$VAR$1
(*) BOOL
300042A0  F8DF 7090		ldr r7, [pc, #+144] ; 0x20000572
300042A4  7038     		strb r0, [r7]

#216			JMPCN	$$LAB$16
(-) BOOL
300042A6  2800     		cmp r0, #0
300042A8  D009     		beq #18 ; 0x300042BE


#217			LD		curSeq {R:9$60}
(*) UNDEF
300042AC  F8DF 7068		ldr r7, [pc, #+104] ; 0x200002B6
300042B0  F9B7 0000		ldrsh r0, [r7]

#218			EQ		80 {R:9$63}
(*) INT
300042B4  2850     		cmp r0, #80
300042B6  BF18 2000		nemov r0, #0
300042BA  BF08 2001		eqmov r0, #1

#219		$$LAB$16:
#220			ST		$$VAR$2
(*) BOOL
300042BE  F8DF 7078		ldr r7, [pc, #+120] ; 0x20000573
300042C2  7038     		strb r0, [r7]

#221			JMPCN	$$LAB$17
(-) BOOL
300042C4  2800     		cmp r0, #0
300042C6  F000 813B		beq #630 ; 0x30004540


#222			MOVE		pushClearanceX,step7.XPOSIN {R:9$104}
(*) BOOL
300042CA  F8DF 7030		ldr r7, [pc, #+48] ; 0x3FDE
300042CE  4638     		mov r0, r7
300042D0  F8DF 7184		ldr r7, [pc, #+388] ; 0x2000069E
300042D4  8038     		strh r0, [r7]

#223			(* $EXPR9$106 := placePositionsY[placeIndex] + pushOffset; *)
#224			LD		placePositionsY[placeIndex]	{R:9$106}
(*) UNDEF
300042D6  F8DF 703C		ldr r7, [pc, #+60] ; 0x200002AA
300042DA  F9B7 5000		ldrsh r5, [r7]
300042DE  F8DF 7044		ldr r7, [pc, #+68] ; 0x200004F4
300042E2  EB07 0745		add r7, r7, r5, lsl #1
300042E6  F9B7 0000		ldrsh r0, [r7]

300042EA  E0DF     		b #446

300042EC  000005DC		; 0x000005DC
300042F0  0000251C		; 0x0000251C
300042F4  00002EE0		; 0x00002EE0
300042F8  000039D0		; 0x000039D0
300042FC  00003FDE		; 0x00003FDE
30004300  0000429A		; 0x0000429A
30004304  000042CC		; 0x000042CC
30004308  0000442A		; 0x0000442A
3000430C  00004DBC		; 0x00004DBC
30004310  200002A8		; 0x200002A8
30004314  200002AA		; 0x200002AA
30004318  200002B6		; 0x200002B6
3000431C  200002B9		; 0x200002B9
30004320  200004CF		; 0x200004CF
30004324  200004F4		; 0x200004F4
30004328  200004FC		; 0x200004FC
3000432C  20000570		; 0x20000570
30004330  20000571		; 0x20000571
30004334  20000572		; 0x20000572
30004338  20000573		; 0x20000573
3000433C  20000574		; 0x20000574
30004340  2000057A		; 0x2000057A
30004344  2000057C		; 0x2000057C
30004348  2000057E		; 0x2000057E
3000434C  20000580		; 0x20000580
30004350  20000582		; 0x20000582
30004354  20000584		; 0x20000584
30004358  20000586		; 0x20000586
3000435C  20000588		; 0x20000588
30004360  2000058A		; 0x2000058A
30004364  20000598		; 0x20000598
30004368  2000059C		; 0x2000059C
3000436C  200005A2		; 0x200005A2
30004370  200005A4		; 0x200005A4
30004374  200005A6		; 0x200005A6
30004378  200005A8		; 0x200005A8
3000437C  200005AA		; 0x200005AA
30004380  200005AC		; 0x200005AC
30004384  200005AE		; 0x200005AE
30004388  200005B0		; 0x200005B0
3000438C  200005B2		; 0x200005B2
30004390  200005C4		; 0x200005C4
30004394  200005CA		; 0x200005CA
30004398  200005CC		; 0x200005CC
3000439C  200005CE		; 0x200005CE
300043A0  200005D0		; 0x200005D0
300043A4  200005D2		; 0x200005D2
300043A8  200005D4		; 0x200005D4
300043AC  200005D6		; 0x200005D6
300043B0  200005D8		; 0x200005D8
300043B4  200005DA		; 0x200005DA
300043B8  200005E8		; 0x200005E8
300043BC  200005EE		; 0x200005EE
300043C0  200005F0		; 0x200005F0
300043C4  200005F2		; 0x200005F2
300043C8  200005F4		; 0x200005F4
300043CC  200005F6		; 0x200005F6
300043D0  200005F8		; 0x200005F8
300043D4  200005FA		; 0x200005FA
300043D8  200005FC		; 0x200005FC
300043DC  200005FE		; 0x200005FE
300043E0  20000610		; 0x20000610
300043E4  20000616		; 0x20000616
300043E8  20000618		; 0x20000618
300043EC  2000061A		; 0x2000061A
300043F0  2000061C		; 0x2000061C
300043F4  2000061E		; 0x2000061E
300043F8  20000620		; 0x20000620
300043FC  20000622		; 0x20000622
30004400  20000624		; 0x20000624
30004404  20000626		; 0x20000626
30004408  20000634		; 0x20000634
3000440C  2000063A		; 0x2000063A
30004410  2000063C		; 0x2000063C
30004414  2000063E		; 0x2000063E
30004418  20000640		; 0x20000640
3000441C  20000642		; 0x20000642
30004420  20000644		; 0x20000644
30004424  20000646		; 0x20000646
30004428  20000648		; 0x20000648
3000442C  2000064A		; 0x2000064A
30004430  20000674		; 0x20000674
30004434  2000067A		; 0x2000067A
30004438  2000067C		; 0x2000067C
3000443C  2000067E		; 0x2000067E
30004440  20000680		; 0x20000680
30004444  20000682		; 0x20000682
30004448  20000684		; 0x20000684
3000444C  20000686		; 0x20000686
30004450  20000688		; 0x20000688
30004454  2000068A		; 0x2000068A
30004458  2000069E		; 0x2000069E
3000445C  20000730		; 0x20000730
30004460  20000734		; 0x20000734
30004464  20000738		; 0x20000738
30004468  2000073C		; 0x2000073C
3000446C  20000B4E		; 0x20000B4E
30004470  20000B50		; 0x20000B50
30004474  20000B52		; 0x20000B52
30004478  20000B54		; 0x20000B54
3000447C  20000B56		; 0x20000B56
30004480  20000B58		; 0x20000B58
30004484  20000B5A		; 0x20000B5A
30004488  FFFFFFFF		; 0x24020672
3000448C  30001838		; 0x30001838
30004490  3000196C		; 0x3000196C
30004494  FFFFFFFF		; 0x38000000
30004498  FFFFFFFF		; 0x38000002
3000449C  FFFFFFFF		; 0x38000004
300044A0  FFFFFFFF		; 0x38000204
300044A4  FFFFFFFF		; 0x3800020A
300044A8  FFFFFFFF		; 0x38000210

#225			ADD		pushOffset	{R:9$106}
(*) INT
300044AC  F85F 714C		ldr r7, [pc, #-332] ; 0x20000598
300044B0  F9B7 7000		ldrsh r7, [r7]
300044B4  19C0     		add r0, r0, r7

#226			ST		$EXPR9$106	{R:9$106}
(*) INT
300044B6  F8DF 721C		ldr r7, [pc, #+540] ; 0x20000B5C
300044BA  8038     		strh r0, [r7]

#227			MOVE		$EXPR9$106,step7.YPOSIN {R:9$104}
(*) INT
300044BC  F8DF 7214		ldr r7, [pc, #+532] ; 0x20000B5C
300044C0  F9B7 0000		ldrsh r0, [r7]
300044C4  F8DF 71E4		ldr r7, [pc, #+484] ; 0x200006A0
300044C8  8038     		strh r0, [r7]

#228			MOVE		ZTop,step7.ZPOSIN {R:9$104}
(*) INT
300044CA  F85F 71D4		ldr r7, [pc, #-468] ; 0x39D0
300044CE  4638     		mov r0, r7
300044D0  F8DF 71DC		ldr r7, [pc, #+476] ; 0x200006A2
300044D4  8038     		strh r0, [r7]

#229			MOVE		XPosAct,step7.XPOSACT {R:9$104}
(*) INT
300044D6  F85F 7044		ldr r7, [pc, #-68] ; 0x38000000
300044DA  F9B7 0000		ldrsh r0, [r7]
300044DE  F8DF 71D4		ldr r7, [pc, #+468] ; 0x200006A4
300044E2  8038     		strh r0, [r7]

#230			MOVE		YPosAct,step7.YPOSACT {R:9$104}
(*) INT
300044E4  F85F 7050		ldr r7, [pc, #-80] ; 0x38000002
300044E8  F9B7 0000		ldrsh r0, [r7]
300044EC  F8DF 71C8		ldr r7, [pc, #+456] ; 0x200006A6
300044F0  8038     		strh r0, [r7]

#231			MOVE		ZPosAct,step7.ZPOSACT {R:9$104}
(*) INT
300044F2  F85F 7058		ldr r7, [pc, #-88] ; 0x38000004
300044F6  F9B7 0000		ldrsh r0, [r7]
300044FA  F8DF 71C0		ldr r7, [pc, #+448] ; 0x200006A8
300044FE  8038     		strh r0, [r7]

#232			CAL		step7 {R:9$104}
(*) INT
30004500  E92D 0021		stmdb sp!, { r0, r5 }
30004504  F8DF 51A0		ldr r5, [pc, #+416] ; 0x20000698
30004508  F85F 4080		ldr r4, [pc, #-128] ; 0x30001838
3000450C  F044 0401		orr r4, r4, #1
30004510  47A0     		blx r4
30004512  E8BD 0021		ldmia sp!, { r0, r5 }

#233			MOVE		step7.XPOSOUT,XPos {R:9$104}
(*) INT
30004516  F8DF 71A8		ldr r7, [pc, #+424] ; 0x200006AA
3000451A  F9B7 0000		ldrsh r0, [r7]
3000451E  F85F 7080		ldr r7, [pc, #-128] ; 0x38000204
30004522  8038     		strh r0, [r7]

#234			MOVE		step7.YPOSOUT,YPos {R:9$104}
(*) INT
30004524  F8DF 719C		ldr r7, [pc, #+412] ; 0x200006AC
30004528  F9B7 0000		ldrsh r0, [r7]
3000452C  F85F 708C		ldr r7, [pc, #-140] ; 0x3800020A
30004530  8038     		strh r0, [r7]

#235			MOVE		step7.ZPOSOUT,ZPos {R:9$104}
(*) INT
30004532  F8DF 7194		ldr r7, [pc, #+404] ; 0x200006AE
30004536  F9B7 0000		ldrsh r0, [r7]
3000453A  F85F 7094		ldr r7, [pc, #-148] ; 0x38000210
3000453E  8038     		strh r0, [r7]

#236		$$LAB$17:
#237			LD		$$VAR$2
(*) UNDEF
30004540  F85F 720C		ldr r7, [pc, #-524] ; 0x20000573
30004544  7838     		ldrb r0, [r7]

#238		 
#239			(* Network 10 *)
#240			LD		auto {R:10$17}
(*) UNDEF
30004546  F85F 7238		ldr r7, [pc, #-568] ; 0x200002A8
3000454A  7838     		ldrb r0, [r7]

#241			AND		pushSeq {R:10$18}
(*) BOOL
3000454C  F85F 7220		ldr r7, [pc, #-544] ; 0x20000571
30004550  783F     		ldrb r7, [r7]
30004552  4038     		and r0, r0, r7

#242			ST		$$VAR$1
(*) BOOL
30004554  F85F 7224		ldr r7, [pc, #-548] ; 0x20000572
30004558  7038     		strb r0, [r7]

#243			JMPCN	$$LAB$18
(-) BOOL
3000455A  2800     		cmp r0, #0
3000455C  D00C     		beq #24 ; 0x30004578


#244			LD		curSeq {R:10$24}
(*) UNDEF
30004560  F85F 724C		ldr r7, [pc, #-588] ; 0x200002B6
30004564  F9B7 0000		ldrsh r0, [r7]

#245			EQ		90 {R:10$27}
(*) INT
30004568  285A     		cmp r0, #90
3000456A  BF18 2000		nemov r0, #0
3000456E  BF08 2001		eqmov r0, #1

#246			ST		cmplt {R:10$37}
(*) BOOL
30004572  F85F 7258		ldr r7, [pc, #-600] ; 0x200002B9
30004576  7038     		strb r0, [r7]

#247		$$LAB$18:
#248			LD		$$VAR$1
(*) UNDEF
30004578  F85F 7248		ldr r7, [pc, #-584] ; 0x20000572
3000457C  7838     		ldrb r0, [r7]

#249		 
#250			(* Network 11 *)
#251			LD		auto {R:11$7}
(*) UNDEF
3000457E  F85F 7270		ldr r7, [pc, #-624] ; 0x200002A8
30004582  7838     		ldrb r0, [r7]

#252			AND		pushSeq {R:11$5}
(*) BOOL
30004584  F85F 7258		ldr r7, [pc, #-600] ; 0x20000571
30004588  783F     		ldrb r7, [r7]
3000458A  4038     		and r0, r0, r7

#253			AND		$$PC$cmplt
(*) BOOL
3000458C  F85F 7264		ldr r7, [pc, #-612] ; 0x20000570
30004590  783F     		ldrb r7, [r7]
30004592  4038     		and r0, r0, r7

#254			ST		$$VAR$1
(*) BOOL
30004594  F85F 7264		ldr r7, [pc, #-612] ; 0x20000572
30004598  7038     		strb r0, [r7]

#255			R		pushSeq {R:11$4}
(*) BOOL
3000459A  2800     		cmp r0, #0
3000459C  D009     		beq #0x000012
3000459E  B082     		sub sp, sp, #8
300045A0  F8CD 0000		str r0, [sp]
300045A4  2000     		mov r0, #0
300045A6  F85F 7278		ldr r7, [pc, #-632] ; 0x20000571
300045AA  7038     		strb r0, [r7]
300045AC  F8DD 0000		ldr r0, [sp]
300045B0  B002     		add sp, sp, #8

#256			LD		$$VAR$1
(*) UNDEF
300045B2  F85F 7280		ldr r7, [pc, #-640] ; 0x20000572
300045B6  7838     		ldrb r0, [r7]

#257			JMPCN	$$LAB$19
(-) BOOL
300045B8  2800     		cmp r0, #0
300045BA  D00D     		beq #26 ; 0x300045D8


#258			LD		cutDigit {R:11$12}
(*) UNDEF
300045BE  F8DF 70DC		ldr r7, [pc, #+220] ; 0x200002B4
300045C2  F9B7 0000		ldrsh r0, [r7]

#259			ST		placedCur[placeIndex] {R:11$13}
(*) INT
300045C6  F85F 72B4		ldr r7, [pc, #-692] ; 0x200002AA
300045CA  F9B7 5000		ldrsh r5, [r7]
300045CE  F8DF 70FC		ldr r7, [pc, #+252] ; 0x200006C0
300045D2  EB07 0745		add r7, r7, r5, lsl #1
300045D6  8038     		strh r0, [r7]

#260		$$LAB$19:
#261			LD		$$VAR$1
(*) UNDEF
300045D8  F85F 72A8		ldr r7, [pc, #-680] ; 0x20000572
300045DC  7838     		ldrb r0, [r7]

#262			LD		$$VAR$1
(*) UNDEF
300045DE  F85F 72AC		ldr r7, [pc, #-684] ; 0x20000572
300045E2  7838     		ldrb r0, [r7]

#263			JMPCN	$$LAB$20
(-) BOOL
300045E4  2800     		cmp r0, #0
300045E6  D004     		beq #8 ; 0x300045F2


#264			LD		10 {R:11$17}
(-) UNDEF
300045EA  200A     		mov r0, #10 ; 10

#265			ST		curSeq {R:11$18}
(*) USINT
300045EC  F85F 72D8		ldr r7, [pc, #-728] ; 0x200002B6
300045F0  8038     		strh r0, [r7]

#266		$$LAB$20:
#267			LD		$$VAR$1
(*) UNDEF
300045F2  F85F 72C0		ldr r7, [pc, #-704] ; 0x20000572
300045F6  7838     		ldrb r0, [r7]

#268			LD		$$VAR$1
(*) UNDEF
300045F8  F85F 72C8		ldr r7, [pc, #-712] ; 0x20000572
300045FC  7838     		ldrb r0, [r7]

#269			S		engraveSeq {R:11$21}
(*) BOOL
300045FE  2800     		cmp r0, #0
30004600  D009     		beq #0x000012
30004602  B082     		sub sp, sp, #8
30004604  F8CD 0000		str r0, [sp]
30004608  2001     		mov r0, #1
3000460A  F8DF 7098		ldr r7, [pc, #+152] ; 0x2000036E
3000460E  7038     		strb r0, [r7]
30004610  F8DD 0000		ldr r0, [sp]
30004614  B002     		add sp, sp, #8

#270			LD		$$VAR$1
(*) UNDEF
30004616  F85F 72E4		ldr r7, [pc, #-740] ; 0x20000572
3000461A  7838     		ldrb r0, [r7]

#271			JMPCN	$$LAB$21
(-) BOOL
3000461C  2800     		cmp r0, #0
3000461E  D009     		beq #18 ; 0x30004634


#272			LD		pickIndex {R:11$65}
(*) UNDEF
30004622  F8DF 707C		ldr r7, [pc, #+124] ; 0x200002BA
30004626  F9B7 0000		ldrsh r0, [r7]

#273			LT		9 {R:11$66}
(*) INT
3000462A  2809     		cmp r0, #9
3000462C  BFA8 2000		gemov r0, #0
30004630  BFB8 2001		ltmov r0, #1

#274		$$LAB$21:
#275			ST		$$VAR$2
(*) BOOL
30004634  F85F 7300		ldr r7, [pc, #-768] ; 0x20000573
30004638  7038     		strb r0, [r7]

#276			JMPCN	$$LAB$22
(-) BOOL
3000463A  2800     		cmp r0, #0
3000463C  D009     		beq #18 ; 0x30004652


#277			LD		1 {R:11$29}
(-) UNDEF
30004640  2001     		mov r0, #1 ; 1

#278			ADD		pickIndex {R:11$30}
(*) USINT
30004642  F8DF 705C		ldr r7, [pc, #+92] ; 0x200002BA
30004646  F9B7 7000		ldrsh r7, [r7]
3000464A  19C0     		add r0, r0, r7

#279			ST		pickIndex {R:11$27}
(*) INT
3000464C  F8DF 7050		ldr r7, [pc, #+80] ; 0x200002BA
30004650  8038     		strh r0, [r7]

#280		$$LAB$22:
#281			LD		$$VAR$2
(*) UNDEF
30004652  F85F 731C		ldr r7, [pc, #-796] ; 0x20000573
30004656  7838     		ldrb r0, [r7]

#282			LD		$$VAR$1
(*) UNDEF
30004658  F85F 7328		ldr r7, [pc, #-808] ; 0x20000572
3000465C  7838     		ldrb r0, [r7]

#283			JMPCN	$$LAB$23
(-) BOOL
3000465E  2800     		cmp r0, #0
30004660  D009     		beq #18 ; 0x30004676


#284			LD		pickIndex {R:11$61}
(*) UNDEF
30004664  F8DF 7038		ldr r7, [pc, #+56] ; 0x200002BA
30004668  F9B7 0000		ldrsh r0, [r7]

#285			GT		8 {R:11$64}
(*) INT
3000466C  2808     		cmp r0, #8
3000466E  BFD8 2000		lemov r0, #0
30004672  BFC8 2001		gtmov r0, #1

#286		$$LAB$23:
#287			ST		$$VAR$3
(*) BOOL
30004676  F8DF 7058		ldr r7, [pc, #+88] ; 0x20000B08
3000467A  7038     		strb r0, [r7]

#288			JMPCN	$$LAB$24
(-) BOOL
3000467C  2800     		cmp r0, #0
3000467E  D004     		beq #8 ; 0x3000468A


#289			LD		0 {R:11$53}
(-) UNDEF
30004682  2000     		mov r0, #0 ; 0

#290			ST		pickIndex {R:11$52}
(*) USINT
30004684  F8DF 7018		ldr r7, [pc, #+24] ; 0x200002BA
30004688  8038     		strh r0, [r7]

#291		$$LAB$24:
#292			LD		$$VAR$3
(*) UNDEF
3000468A  F8DF 7044		ldr r7, [pc, #+68] ; 0x20000B08
3000468E  7838     		ldrb r0, [r7]

30004690  E8BD 0FF0		ldmia sp!, { r4, r5, r6, r7, r8, r9, r10, r11 }
30004694  F8DD E000		ldr lr, [sp]
30004698  B002     		add sp, sp, #8

3000469A  4770     		bx lr

3000469C  200002B4		; 0x200002B4
300046A0  200002BA		; 0x200002BA
300046A4  2000036E		; 0x2000036E
300046A8  20000698		; 0x20000698
300046AC  200006A0		; 0x200006A0
300046B0  200006A2		; 0x200006A2
300046B4  200006A4		; 0x200006A4
300046B8  200006A6		; 0x200006A6
300046BC  200006A8		; 0x200006A8
300046C0  200006AA		; 0x200006AA
300046C4  200006AC		; 0x200006AC
300046C8  200006AE		; 0x200006AE
300046CC  200006C0		; 0x200006C0
300046D0  20000B08		; 0x20000B08
300046D4  20000B5C		; 0x20000B5C

END_PROGRAM


**************************************************
	Target variable image generation
**************************************************


*** INPUT:
300046D8  4770     		bx lr


*** OUTPUT:
300046DA  4770     		bx lr



**************************************************
	Task Fast init code
**************************************************

300046DC  B082     		sub sp, sp, #8
300046DE  F8CD E000		str lr, [sp]
300046E2  E92D 0FF0		stmdb sp!, { r4, r5, r6, r7, r8, r9, r10, r11 }

Var init: V::Cut_SEQ.$$PC$cutSeq = 1
300046E6  F8DF 0088		ldr r0, [pc, #+136] ; 0x1
300046EA  F8DF 70A4		ldr r7, [pc, #+164] ; 0x200002A7
300046EE  7038     		strb r0, [r7]

Var init: V::Cut_SEQ.laserPWR = 10.0
300046F0  F8DF 00CC		ldr r0, [pc, #+204] ; 0x41200000 = 10.000000
300046F4  EE00 0A10		fmsr s0, r0
300046F8  F8DF 7098		ldr r7, [pc, #+152] ; 0x200002BC
300046FC  ED87 0A00		fsts s0, [r7]

Var init: V::Engrave_SEQ.$$PC$engraveSeq = 1
30004700  F8DF 006C		ldr r0, [pc, #+108] ; 0x1
30004704  F8DF 7090		ldr r7, [pc, #+144] ; 0x20000370
30004708  7038     		strb r0, [r7]

Var init: V::Pick_SEQ.pickOffsetY = 2100
3000470A  F8DF 0074		ldr r0, [pc, #+116] ; 0x834
3000470E  F8DF 708C		ldr r7, [pc, #+140] ; 0x200003B2
30004712  8038     		strh r0, [r7]

Var init: V::Place_SEQ.placeHeight = 9500
30004714  F8DF 0070		ldr r0, [pc, #+112] ; 0x251C
30004718  F8DF 7084		ldr r7, [pc, #+132] ; 0x200004FE
3000471C  8038     		strh r0, [r7]

Var init: V::Push_SEQ.$$PC$cmplt = 1
3000471E  F8DF 0050		ldr r0, [pc, #+80] ; 0x1
30004722  F8DF 7080		ldr r7, [pc, #+128] ; 0x20000570
30004726  7038     		strb r0, [r7]

Var init: V::Push_SEQ.pushOffset = 150
30004728  F8DF 0048		ldr r0, [pc, #+72] ; 0x96
3000472C  F8DF 7078		ldr r7, [pc, #+120] ; 0x20000598
30004730  8038     		strh r0, [r7]

Var init: V::Sched.$$PC$START_PB = 1
30004732  F8DF 003C		ldr r0, [pc, #+60] ; 0x1
30004736  F8DF 7074		ldr r7, [pc, #+116] ; 0x200006C9
3000473A  7038     		strb r0, [r7]

Var init: V::main.XPosInit = 1000
3000473C  F8DF 0038		ldr r0, [pc, #+56] ; 0x3E8
30004740  F8DF 706C		ldr r7, [pc, #+108] ; 0x200006FE
30004744  8038     		strh r0, [r7]

Var init: V::main.YPosInit = 8000
30004746  F8DF 003C		ldr r0, [pc, #+60] ; 0x1F40
3000474A  F8DF 7068		ldr r7, [pc, #+104] ; 0x20000700
3000474E  8038     		strh r0, [r7]

Var init: V::main.ZPosInit = 12000
30004750  F8DF 0038		ldr r0, [pc, #+56] ; 0x2EE0
30004754  F8DF 7060		ldr r7, [pc, #+96] ; 0x20000702
30004758  8038     		strh r0, [r7]

Var init: V::main.ASpeedInit = 1500
3000475A  F8DF 0020		ldr r0, [pc, #+32] ; 0x5DC
3000475E  F8DF 705C		ldr r7, [pc, #+92] ; 0x20000706
30004762  8038     		strh r0, [r7]

30004764  E8BD 0FF0		ldmia sp!, { r4, r5, r6, r7, r8, r9, r10, r11 }
30004768  F8DD E000		ldr lr, [sp]
3000476C  B002     		add sp, sp, #8

3000476E  4770     		bx lr

30004770  00000001		; 0x00000001
30004774  00000096		; 0x00000096
30004778  000003E8		; 0x000003E8
3000477C  000005DC		; 0x000005DC
30004780  00000834		; 0x00000834
30004784  00001F40		; 0x00001F40
30004788  0000251C		; 0x0000251C
3000478C  00002EE0		; 0x00002EE0
30004790  200002A7		; 0x200002A7
30004794  200002BC		; 0x200002BC
30004798  20000370		; 0x20000370
3000479C  200003B2		; 0x200003B2
300047A0  200004FE		; 0x200004FE
300047A4  20000570		; 0x20000570
300047A8  20000598		; 0x20000598
300047AC  200006C9		; 0x200006C9
300047B0  200006FE		; 0x200006FE
300047B4  20000700		; 0x20000700
300047B8  20000702		; 0x20000702
300047BC  20000706		; 0x20000706
300047C0  41200000		; 0x41200000

**************************************************
	List program: InitParDB
**************************************************

PROGRAM InitParDB

        VAR
warningsKiller : USINT;
dummyCrc32 : UDINT;
	END_VAR

END_PROGRAM

300047D0  B082     		sub sp, sp, #8
300047D2  F8CD E000		str lr, [sp]
300047D6  E92D 0FF0		stmdb sp!, { r4, r5, r6, r7, r8, r9, r10, r11 }

#0		{SRC:InitParDB}
#1		(*$WAITSWITCH$*)
#2		
#3			(* dummyCrc32 := 0; *)
#4			MOVE		0,dummyCrc32	{LNXT:3|5|-1}
(*) UDINT
300047DA  2000     		mov r0, #0 ; 0
300047DC  F8DF 7058		ldr r7, [pc, #+88] ; 0x200003AC
300047E0  6038     		str r0, [r7]

#5		
#6			(* warningsKiller := sysDBase_SetExtTable( TO_DWORD( 0 ), 0, 0, 0, 0, 0, 0, 0, 0, 0, 0 ); *)
#7			LDP0		0	{LNXT:5|3|-1}
(-) UDINT
#8			TO_DWORD	{LNXT:5|3|-1}
(-) USINT
300047E2  2000     		mov r0, #0 ; 0

#9			sysDBase_SetExtTable		0, 0, 0, 0, 0, 0, 0, 0, 0, 0	{LNXT:5|3|-1}
(*) DWORD
300047E4  B088     		sub sp, sp, #32
300047E6  2700     		mov r7, #0 ; 0
300047E8  4639     		mov r1, r7
300047EA  2700     		mov r7, #0 ; 0
300047EC  463A     		mov r2, r7
300047EE  2700     		mov r7, #0 ; 0
300047F0  463B     		mov r3, r7
300047F2  2700     		mov r7, #0 ; 0
300047F4  F8CD 7000		str r7, [sp]
300047F8  2700     		mov r7, #0 ; 0
300047FA  F8CD 7004		str r7, [sp, #+4]
300047FE  2700     		mov r7, #0 ; 0
30004800  F8CD 7008		str r7, [sp, #+8]
30004804  2700     		mov r7, #0 ; 0
30004806  F8CD 700C		str r7, [sp, #+12]
3000480A  2700     		mov r7, #0 ; 0
3000480C  F8CD 7010		str r7, [sp, #+16]
30004810  2700     		mov r7, #0 ; 0
30004812  F8CD 7014		str r7, [sp, #+20]
30004816  2700     		mov r7, #0 ; 0
30004818  F8CD 7018		str r7, [sp, #+24]
3000481C  F8DF 4010		ldr r4, [pc, #+16] ; 0x8076D55
30004820  F044 0401		orr r4, r4, #1
30004824  47A0     		blx r4
30004826  B008     		add sp, sp, #32

#10			ST		warningsKiller	{LNXT:5|3|-1}
(*) USINT
30004828  F8DF 7008		ldr r7, [pc, #+8] ; 0x20000373
3000482C  7038     		strb r0, [r7]

3000482E  E005     		b #10

30004830  FFFFFFFF		; 0x08076D55
30004834  20000373		; 0x20000373
30004838  200003AC		; 0x200003AC

END_PROGRAM
**************************************************
	List program: init
**************************************************

PROGRAM init

        VAR
XSpeedInit : INT := 200;
YSpeedInit : INT := 200;
ZSpeedInit : INT := 200;
ASpeedInit : INT := 1500;
	END_VAR

END_PROGRAM

#0			{SRC:init}
#1		 
#2		  
#3			(* Network 1 *)
#4			LD		-1 {R:1$5}
(*) UNDEF
3000483C  F04F 30FF		mov r0, #4294967295 ; 4294967295

#5			ST		placedCur[0] {R:1$4}
(*) SINT
30004840  F8DF 7034		ldr r7, [pc, #+52] ; 0x200006C0
30004844  8038     		strh r0, [r7]

#6			LD		TRUE
(-) UNDEF
30004846  2001     		mov r0, #1 ; 1

#7		 
#8			(* Network 2 *)
#9			LD		-1 {R:2$5}
(*) UNDEF
30004848  F04F 30FF		mov r0, #4294967295 ; 4294967295

#10			ST		placedCur[1] {R:2$4}
(*) SINT
3000484C  F8DF 702C		ldr r7, [pc, #+44] ; 0x200006C2
30004850  8038     		strh r0, [r7]

#11			LD		TRUE
(-) UNDEF
30004852  2001     		mov r0, #1 ; 1

#12		 
#13			(* Network 3 *)
#14			LD		-1 {R:3$5}
(*) UNDEF
30004854  F04F 30FF		mov r0, #4294967295 ; 4294967295

#15			ST		placedCur[2] {R:3$4}
(*) SINT
30004858  F8DF 7024		ldr r7, [pc, #+36] ; 0x200006C4
3000485C  8038     		strh r0, [r7]

#16			LD		TRUE
(-) UNDEF
3000485E  2001     		mov r0, #1 ; 1

#17		 
#18			(* Network 4 *)
#19			LD		-1 {R:4$5}
(*) UNDEF
30004860  F04F 30FF		mov r0, #4294967295 ; 4294967295

#20			ST		placedCur[3] {R:4$4}
(*) SINT
30004864  F8DF 701C		ldr r7, [pc, #+28] ; 0x200006C6
30004868  8038     		strh r0, [r7]

#21			LD		TRUE
(-) UNDEF
3000486A  2001     		mov r0, #1 ; 1

#22		 
#23			(* Network 5 *)
#24			LD		TRUE
(-) UNDEF
3000486C  2001     		mov r0, #1 ; 1

#25			ST		Home {R:5$2}
(*) BOOL
3000486E  F8DF 7018		ldr r7, [pc, #+24] ; 0x38000212
30004872  7038     		strb r0, [r7]

30004874  E00A     		b #20

30004878  200006C0		; 0x200006C0
3000487C  200006C2		; 0x200006C2
30004880  200006C4		; 0x200006C4
30004884  200006C6		; 0x200006C6
30004888  FFFFFFFF		; 0x38000212

END_PROGRAM
**************************************************
	List program: $$IOConfig
**************************************************

PROGRAM $$IOConfig

        VAR
warningsKiller : BOOL;
	END_VAR

END_PROGRAM

#0		{SRC:$$IOConfig}
#1		(*$WAITSWITCH$*)
#2		
#3			(* warningsKiller := sysCfgDOs(0); *)
#4			LDP0		0	{LNXT:4|7|-1}
(-) UDINT
#5			sysCfgDOs	{LNXT:4|7|-1}
(*) USINT
3000488C  2700     		mov r7, #0 ; 0
3000488E  4638     		mov r0, r7
30004890  F8DF 4218		ldr r4, [pc, #+536] ; 0x807DF91
30004894  F044 0401		orr r4, r4, #1
30004898  47A0     		blx r4

#6			ST		warningsKiller	{LNXT:4|7|-1}
(*) BOOL
3000489A  F8DF 722C		ldr r7, [pc, #+556] ; 0x200002A4
3000489E  7038     		strb r0, [r7]

#7		
#8			(* warningsKiller := sysCfgAIs(0); *)
#9			LDP0		0	{LNXT:7|10|-1}
(-) BOOL
#10			sysCfgAIs	{LNXT:7|10|-1}
(*) USINT
300048A0  2700     		mov r7, #0 ; 0
300048A2  4638     		mov r0, r7
300048A4  F8DF 4208		ldr r4, [pc, #+520] ; 0x807DFB1
300048A8  F044 0401		orr r4, r4, #1
300048AC  47A0     		blx r4

#11			ST		warningsKiller	{LNXT:7|10|-1}
(*) BOOL
300048AE  F8DF 7218		ldr r7, [pc, #+536] ; 0x200002A4
300048B2  7038     		strb r0, [r7]

#12		
#13			(* warningsKiller := sysCfgAO(0, 0); *)
#14			LDP0		0	{LNXT:10|11|-1}
(-) BOOL
#15			sysCfgAO		0	{LNXT:10|11|-1}
(*) USINT
300048B4  2700     		mov r7, #0 ; 0
300048B6  4638     		mov r0, r7
300048B8  2700     		mov r7, #0 ; 0
300048BA  4639     		mov r1, r7
300048BC  F8DF 41F4		ldr r4, [pc, #+500] ; 0x807DFE1
300048C0  F044 0401		orr r4, r4, #1
300048C4  47A0     		blx r4

#16			ST		warningsKiller	{LNXT:10|11|-1}
(*) BOOL
300048C6  F8DF 7200		ldr r7, [pc, #+512] ; 0x200002A4
300048CA  7038     		strb r0, [r7]

#17		
#18			(* warningsKiller := sysCfgAO(1, 0); *)
#19			LDP0		1	{LNXT:11|12|-1}
(-) BOOL
#20			sysCfgAO		0	{LNXT:11|12|-1}
(*) USINT
300048CC  2701     		mov r7, #1 ; 1
300048CE  4638     		mov r0, r7
300048D0  2700     		mov r7, #0 ; 0
300048D2  4639     		mov r1, r7
300048D4  F8DF 41DC		ldr r4, [pc, #+476] ; 0x807DFE1
300048D8  F044 0401		orr r4, r4, #1
300048DC  47A0     		blx r4

#21			ST		warningsKiller	{LNXT:11|12|-1}
(*) BOOL
300048DE  F8DF 71E8		ldr r7, [pc, #+488] ; 0x200002A4
300048E2  7038     		strb r0, [r7]

#22		
#23			(* warningsKiller := sysCfgAO(2, 0); *)
#24			LDP0		2	{LNXT:12|13|-1}
(-) BOOL
#25			sysCfgAO		0	{LNXT:12|13|-1}
(*) USINT
300048E4  2702     		mov r7, #2 ; 2
300048E6  4638     		mov r0, r7
300048E8  2700     		mov r7, #0 ; 0
300048EA  4639     		mov r1, r7
300048EC  F8DF 41C4		ldr r4, [pc, #+452] ; 0x807DFE1
300048F0  F044 0401		orr r4, r4, #1
300048F4  47A0     		blx r4

#26			ST		warningsKiller	{LNXT:12|13|-1}
(*) BOOL
300048F6  F8DF 71D0		ldr r7, [pc, #+464] ; 0x200002A4
300048FA  7038     		strb r0, [r7]

#27		
#28			(* warningsKiller := sysCfgAO(3, 0); *)
#29			LDP0		3	{LNXT:13|16|-1}
(-) BOOL
#30			sysCfgAO		0	{LNXT:13|16|-1}
(*) USINT
300048FC  2703     		mov r7, #3 ; 3
300048FE  4638     		mov r0, r7
30004900  2700     		mov r7, #0 ; 0
30004902  4639     		mov r1, r7
30004904  F8DF 41AC		ldr r4, [pc, #+428] ; 0x807DFE1
30004908  F044 0401		orr r4, r4, #1
3000490C  47A0     		blx r4

#31			ST		warningsKiller	{LNXT:13|16|-1}
(*) BOOL
3000490E  F8DF 71B8		ldr r7, [pc, #+440] ; 0x200002A4
30004912  7038     		strb r0, [r7]

#32		
#33			(* warningsKiller := sysCfgProgDIOs(0); *)
#34			LDP0		0	{LNXT:16|19|-1}
(-) BOOL
#35			sysCfgProgDIOs	{LNXT:16|19|-1}
(*) USINT
30004914  2700     		mov r7, #0 ; 0
30004916  4638     		mov r0, r7
30004918  F8DF 419C		ldr r4, [pc, #+412] ; 0x807DFE5
3000491C  F044 0401		orr r4, r4, #1
30004920  47A0     		blx r4

#36			ST		warningsKiller	{LNXT:16|19|-1}
(*) BOOL
30004922  F8DF 71A4		ldr r7, [pc, #+420] ; 0x200002A4
30004926  7038     		strb r0, [r7]

#37		
#38			(* warningsKiller := sysCfgProgDIO(0, 2); *)
#39			LDP0		0	{LNXT:19|20|-1}
(-) BOOL
#40			sysCfgProgDIO		2	{LNXT:19|20|-1}
(*) USINT
30004928  2700     		mov r7, #0 ; 0
3000492A  4638     		mov r0, r7
3000492C  2102     		mov r1, #2 ; 2
3000492E  F8DF 418C		ldr r4, [pc, #+396] ; 0x807E005
30004932  F044 0401		orr r4, r4, #1
30004936  47A0     		blx r4

#41			ST		warningsKiller	{LNXT:19|20|-1}
(*) BOOL
30004938  F8DF 718C		ldr r7, [pc, #+396] ; 0x200002A4
3000493C  7038     		strb r0, [r7]

#42		
#43			(* warningsKiller := sysCfgProgDIO(1, 2); *)
#44			LDP0		1	{LNXT:20|21|-1}
(-) BOOL
#45			sysCfgProgDIO		2	{LNXT:20|21|-1}
(*) USINT
3000493E  2701     		mov r7, #1 ; 1
30004940  4638     		mov r0, r7
30004942  2102     		mov r1, #2 ; 2
30004944  F8DF 4174		ldr r4, [pc, #+372] ; 0x807E005
30004948  F044 0401		orr r4, r4, #1
3000494C  47A0     		blx r4

#46			ST		warningsKiller	{LNXT:20|21|-1}
(*) BOOL
3000494E  F8DF 7178		ldr r7, [pc, #+376] ; 0x200002A4
30004952  7038     		strb r0, [r7]

#47		
#48			(* warningsKiller := sysCfgProgDIO(2, 2); *)
#49			LDP0		2	{LNXT:21|22|-1}
(-) BOOL
#50			sysCfgProgDIO		2	{LNXT:21|22|-1}
(*) USINT
30004954  2702     		mov r7, #2 ; 2
30004956  4638     		mov r0, r7
30004958  2102     		mov r1, #2 ; 2
3000495A  F8DF 4160		ldr r4, [pc, #+352] ; 0x807E005
3000495E  F044 0401		orr r4, r4, #1
30004962  47A0     		blx r4

#51			ST		warningsKiller	{LNXT:21|22|-1}
(*) BOOL
30004964  F8DF 7160		ldr r7, [pc, #+352] ; 0x200002A4
30004968  7038     		strb r0, [r7]

#52		
#53			(* warningsKiller := sysCfgProgDIO(3, 2); *)
#54			LDP0		3	{LNXT:22|23|-1}
(-) BOOL
#55			sysCfgProgDIO		2	{LNXT:22|23|-1}
(*) USINT
3000496A  2703     		mov r7, #3 ; 3
3000496C  4638     		mov r0, r7
3000496E  2102     		mov r1, #2 ; 2
30004970  F8DF 4148		ldr r4, [pc, #+328] ; 0x807E005
30004974  F044 0401		orr r4, r4, #1
30004978  47A0     		blx r4

#56			ST		warningsKiller	{LNXT:22|23|-1}
(*) BOOL
3000497A  F8DF 714C		ldr r7, [pc, #+332] ; 0x200002A4
3000497E  7038     		strb r0, [r7]

#57		
#58			(* warningsKiller := sysCfgProgDIO(4, 2); *)
#59			LDP0		4	{LNXT:23|24|-1}
(-) BOOL
#60			sysCfgProgDIO		2	{LNXT:23|24|-1}
(*) USINT
30004980  2704     		mov r7, #4 ; 4
30004982  4638     		mov r0, r7
30004984  2102     		mov r1, #2 ; 2
30004986  F8DF 4134		ldr r4, [pc, #+308] ; 0x807E005
3000498A  F044 0401		orr r4, r4, #1
3000498E  47A0     		blx r4

#61			ST		warningsKiller	{LNXT:23|24|-1}
(*) BOOL
30004990  F8DF 7134		ldr r7, [pc, #+308] ; 0x200002A4
30004994  7038     		strb r0, [r7]

#62		
#63			(* warningsKiller := sysCfgProgDIO(5, 2); *)
#64			LDP0		5	{LNXT:24|25|-1}
(-) BOOL
#65			sysCfgProgDIO		2	{LNXT:24|25|-1}
(*) USINT
30004996  2705     		mov r7, #5 ; 5
30004998  4638     		mov r0, r7
3000499A  2102     		mov r1, #2 ; 2
3000499C  F8DF 411C		ldr r4, [pc, #+284] ; 0x807E005
300049A0  F044 0401		orr r4, r4, #1
300049A4  47A0     		blx r4

#66			ST		warningsKiller	{LNXT:24|25|-1}
(*) BOOL
300049A6  F8DF 7120		ldr r7, [pc, #+288] ; 0x200002A4
300049AA  7038     		strb r0, [r7]

#67		
#68			(* warningsKiller := sysCfgProgDIO(6, 0); *)
#69			LDP0		6	{LNXT:25|26|-1}
(-) BOOL
#70			sysCfgProgDIO		0	{LNXT:25|26|-1}
(*) USINT
300049AC  2706     		mov r7, #6 ; 6
300049AE  4638     		mov r0, r7
300049B0  2100     		mov r1, #0 ; 0
300049B2  F8DF 4108		ldr r4, [pc, #+264] ; 0x807E005
300049B6  F044 0401		orr r4, r4, #1
300049BA  47A0     		blx r4

#71			ST		warningsKiller	{LNXT:25|26|-1}
(*) BOOL
300049BC  F8DF 7108		ldr r7, [pc, #+264] ; 0x200002A4
300049C0  7038     		strb r0, [r7]

#72		
#73			(* warningsKiller := sysCfgProgDIO(7, 0); *)
#74			LDP0		7	{LNXT:26|27|-1}
(-) BOOL
#75			sysCfgProgDIO		0	{LNXT:26|27|-1}
(*) USINT
300049C2  2707     		mov r7, #7 ; 7
300049C4  4638     		mov r0, r7
300049C6  2100     		mov r1, #0 ; 0
300049C8  F8DF 40F0		ldr r4, [pc, #+240] ; 0x807E005
300049CC  F044 0401		orr r4, r4, #1
300049D0  47A0     		blx r4

#76			ST		warningsKiller	{LNXT:26|27|-1}
(*) BOOL
300049D2  F8DF 70F4		ldr r7, [pc, #+244] ; 0x200002A4
300049D6  7038     		strb r0, [r7]

#77		
#78			(* warningsKiller := sysCfgProgDIO(8, 0); *)
#79			LDP0		8	{LNXT:27|28|-1}
(-) BOOL
#80			sysCfgProgDIO		0	{LNXT:27|28|-1}
(*) USINT
300049D8  2708     		mov r7, #8 ; 8
300049DA  4638     		mov r0, r7
300049DC  2100     		mov r1, #0 ; 0
300049DE  F8DF 40DC		ldr r4, [pc, #+220] ; 0x807E005
300049E2  F044 0401		orr r4, r4, #1
300049E6  47A0     		blx r4

#81			ST		warningsKiller	{LNXT:27|28|-1}
(*) BOOL
300049E8  F8DF 70DC		ldr r7, [pc, #+220] ; 0x200002A4
300049EC  7038     		strb r0, [r7]

#82		
#83			(* warningsKiller := sysCfgProgDIO(9, 0); *)
#84			LDP0		9	{LNXT:28|29|-1}
(-) BOOL
#85			sysCfgProgDIO		0	{LNXT:28|29|-1}
(*) USINT
300049EE  2709     		mov r7, #9 ; 9
300049F0  4638     		mov r0, r7
300049F2  2100     		mov r1, #0 ; 0
300049F4  F8DF 40C4		ldr r4, [pc, #+196] ; 0x807E005
300049F8  F044 0401		orr r4, r4, #1
300049FC  47A0     		blx r4

#86			ST		warningsKiller	{LNXT:28|29|-1}
(*) BOOL
300049FE  F8DF 70C8		ldr r7, [pc, #+200] ; 0x200002A4
30004A02  7038     		strb r0, [r7]

#87		
#88			(* warningsKiller := sysCfgProgDIO(10, 0); *)
#89			LDP0		10	{LNXT:29|30|-1}
(-) BOOL
#90			sysCfgProgDIO		0	{LNXT:29|30|-1}
(*) USINT
30004A04  270A     		mov r7, #10 ; 10
30004A06  4638     		mov r0, r7
30004A08  2100     		mov r1, #0 ; 0
30004A0A  F8DF 40B0		ldr r4, [pc, #+176] ; 0x807E005
30004A0E  F044 0401		orr r4, r4, #1
30004A12  47A0     		blx r4

#91			ST		warningsKiller	{LNXT:29|30|-1}
(*) BOOL
30004A14  F8DF 70B0		ldr r7, [pc, #+176] ; 0x200002A4
30004A18  7038     		strb r0, [r7]

#92		
#93			(* warningsKiller := sysCfgProgDIO(11, 0); *)
#94			LDP0		11	{LNXT:30|33|-1}
(-) BOOL
#95			sysCfgProgDIO		0	{LNXT:30|33|-1}
(*) USINT
30004A1A  270B     		mov r7, #11 ; 11
30004A1C  4638     		mov r0, r7
30004A1E  2100     		mov r1, #0 ; 0
30004A20  F8DF 4098		ldr r4, [pc, #+152] ; 0x807E005
30004A24  F044 0401		orr r4, r4, #1
30004A28  47A0     		blx r4

#96			ST		warningsKiller	{LNXT:30|33|-1}
(*) BOOL
30004A2A  F8DF 709C		ldr r7, [pc, #+156] ; 0x200002A4
30004A2E  7038     		strb r0, [r7]

#97		
#98			(* warningsKiller := sysCfgTempProbes(0); *)
#99			LDP0		0	{LNXT:33|36|-1}
(-) BOOL
#100			sysCfgTempProbes	{LNXT:33|36|-1}
(*) USINT
30004A30  2700     		mov r7, #0 ; 0
30004A32  4638     		mov r0, r7
30004A34  F8DF 4088		ldr r4, [pc, #+136] ; 0x807E019
30004A38  F044 0401		orr r4, r4, #1
30004A3C  47A0     		blx r4

#101			ST		warningsKiller	{LNXT:33|36|-1}
(*) BOOL
30004A3E  F8DF 7088		ldr r7, [pc, #+136] ; 0x200002A4
30004A42  7038     		strb r0, [r7]

#102		
#103			(* warningsKiller := sysCfgTempProbe(0, FALSE, 400.0, 100.0); *)
#104			LDP0		0	{LNXT:36|37|-1}
(-) BOOL
#105			sysCfgTempProbe		FALSE, 400.0, 100.0	{LNXT:36|37|-1}
(*) USINT
30004A44  2700     		mov r7, #0 ; 0
30004A46  4638     		mov r0, r7
30004A48  2100     		mov r1, #0 ; 0
30004A4A  F8DF 2084		ldr r2, [pc, #+132] ; 0x43C80000 = 400.000000
30004A4E  F8DF 307C		ldr r3, [pc, #+124] ; 0x42C80000 = 100.000000
30004A52  F8DF 4070		ldr r4, [pc, #+112] ; 0x807E07D
30004A56  F044 0401		orr r4, r4, #1
30004A5A  47A0     		blx r4

#106			ST		warningsKiller	{LNXT:36|37|-1}
(*) BOOL
30004A5C  F8DF 7068		ldr r7, [pc, #+104] ; 0x200002A4
30004A60  7038     		strb r0, [r7]

#107		
#108			(* warningsKiller := sysCfgTempProbe(1, FALSE, 400.0, 100.0); *)
#109			LDP0		1	{LNXT:37|38|-1}
(-) BOOL
#110			sysCfgTempProbe		FALSE, 400.0, 100.0	{LNXT:37|38|-1}
(*) USINT
30004A62  2701     		mov r7, #1 ; 1
30004A64  4638     		mov r0, r7
30004A66  2100     		mov r1, #0 ; 0
30004A68  F8DF 2064		ldr r2, [pc, #+100] ; 0x43C80000 = 400.000000
30004A6C  F8DF 305C		ldr r3, [pc, #+92] ; 0x42C80000 = 100.000000
30004A70  F8DF 4050		ldr r4, [pc, #+80] ; 0x807E07D
30004A74  F044 0401		orr r4, r4, #1
30004A78  47A0     		blx r4

#111			ST		warningsKiller	{LNXT:37|38|-1}
(*) BOOL
30004A7A  F8DF 704C		ldr r7, [pc, #+76] ; 0x200002A4
30004A7E  7038     		strb r0, [r7]

#112		
#113			(* warningsKiller := sysCfgTempProbe(2, FALSE, 400.0, 100.0); *)
#114			LDP0		2	{LNXT:38|4|-1}
(-) BOOL
#115			sysCfgTempProbe		FALSE, 400.0, 100.0	{LNXT:38|4|-1}
(*) USINT
30004A80  2702     		mov r7, #2 ; 2
30004A82  4638     		mov r0, r7
30004A84  2100     		mov r1, #0 ; 0
30004A86  F8DF 2048		ldr r2, [pc, #+72] ; 0x43C80000 = 400.000000
30004A8A  F8DF 3040		ldr r3, [pc, #+64] ; 0x42C80000 = 100.000000
30004A8E  F8DF 4034		ldr r4, [pc, #+52] ; 0x807E07D
30004A92  F044 0401		orr r4, r4, #1
30004A96  47A0     		blx r4

#116			ST		warningsKiller	{LNXT:38|4|-1}
(*) BOOL
30004A98  F8DF 702C		ldr r7, [pc, #+44] ; 0x200002A4
30004A9C  7038     		strb r0, [r7]

30004A9E  E8BD 0FF0		ldmia sp!, { r4, r5, r6, r7, r8, r9, r10, r11 }
30004AA2  F8DD E000		ldr lr, [sp]
30004AA6  B002     		add sp, sp, #8

30004AA8  4770     		bx lr

30004AAC  FFFFFFFF		; 0x0807DF91
30004AB0  FFFFFFFF		; 0x0807DFB1
30004AB4  FFFFFFFF		; 0x0807DFE1
30004AB8  FFFFFFFF		; 0x0807DFE5
30004ABC  FFFFFFFF		; 0x0807E005
30004AC0  FFFFFFFF		; 0x0807E019
30004AC4  FFFFFFFF		; 0x0807E07D
30004AC8  200002A4		; 0x200002A4
30004ACC  42C80000		; 0x42C80000
30004AD0  43C80000		; 0x43C80000

END_PROGRAM


**************************************************
	Target variable image generation
**************************************************


*** INPUT:
30004AD4  4770     		bx lr


*** OUTPUT:
30004AD6  4770     		bx lr



**************************************************
	Task Init init code
**************************************************

30004AD8  B082     		sub sp, sp, #8
30004ADA  F8CD E000		str lr, [sp]
30004ADE  E92D 0FF0		stmdb sp!, { r4, r5, r6, r7, r8, r9, r10, r11 }

30004AE2  E8BD 0FF0		ldmia sp!, { r4, r5, r6, r7, r8, r9, r10, r11 }
30004AE6  F8DD E000		ldr lr, [sp]
30004AEA  B002     		add sp, sp, #8

30004AEC  4770     		bx lr

**************************************************
	List program: TimeGetter
**************************************************

PROGRAM TimeGetter

END_PROGRAM

30004B00  B082     		sub sp, sp, #8
30004B02  F8CD E000		str lr, [sp]
30004B06  E92D 0FF0		stmdb sp!, { r4, r5, r6, r7, r8, r9, r10, r11 }

#0		{SRC:TimeGetter}
#1		(*$WAITSWITCH$*)
#2		
#3			(* timeRTC[0] := minute MOD 10; *)
#4			LD		minute	{LNXT:2|3|-1}
(*) UNDEF
30004B0A  F8DF 723C		ldr r7, [pc, #+572] ; 0x38000008
30004B0E  F9B7 0000		ldrsh r0, [r7]

#5			MOD		10	{LNXT:2|3|-1}
(*) INT
30004B12  210A     		mov r1, #10 ; 10
30004B14  F8DF 4228		ldr r4, [pc, #+552] ; 0x300000F0
30004B18  F044 0401		orr r4, r4, #1
30004B1C  47A0     		blx r4

#6			ST		timeRTC[0]	{LNXT:2|3|-1}
(*) INT
30004B1E  F8DF 7200		ldr r7, [pc, #+512] ; 0x200002AC
30004B22  8038     		strh r0, [r7]

#7		
#8			(* timeRTC[1] := minute / 10; *)
#9			LD		minute	{LNXT:3|5|-1}
(*) UNDEF
30004B24  F8DF 7220		ldr r7, [pc, #+544] ; 0x38000008
30004B28  F9B7 0000		ldrsh r0, [r7]

#10			DIV		10	{LNXT:3|5|-1}
(*) INT
30004B2C  270A     		mov r7, #10 ; 10
30004B2E  B082     		sub sp, sp, #8
30004B30  F8CD 1000		str r1, [sp]
30004B34  4639     		mov r1, r7
30004B36  FB90 F0F1		sdiv r0, r0, r1
30004B3A  F8DD 1000		ldr r1, [sp]
30004B3E  B002     		add sp, sp, #8

#11			ST		timeRTC[1]	{LNXT:3|5|-1}
(*) INT
30004B40  F8DF 71E0		ldr r7, [pc, #+480] ; 0x200002AE
30004B44  8038     		strh r0, [r7]

#12		
#13			(* timeRTC[2] := hour MOD 10; *)
#14			LD		hour	{LNXT:5|6|-1}
(*) UNDEF
30004B46  F8DF 71FC		ldr r7, [pc, #+508] ; 0x38000006
30004B4A  F9B7 0000		ldrsh r0, [r7]

#15			MOD		10	{LNXT:5|6|-1}
(*) INT
30004B4E  210A     		mov r1, #10 ; 10
30004B50  F8DF 41EC		ldr r4, [pc, #+492] ; 0x300000F0
30004B54  F044 0401		orr r4, r4, #1
30004B58  47A0     		blx r4

#16			ST		timeRTC[2]	{LNXT:5|6|-1}
(*) INT
30004B5A  F8DF 71CC		ldr r7, [pc, #+460] ; 0x200002B0
30004B5E  8038     		strh r0, [r7]

#17		
#18			(* timeRTC[3] := hour / 10; *)
#19			LD		hour	{LNXT:6|10|-1}
(*) UNDEF
30004B60  F8DF 71E0		ldr r7, [pc, #+480] ; 0x38000006
30004B64  F9B7 0000		ldrsh r0, [r7]

#20			DIV		10	{LNXT:6|10|-1}
(*) INT
30004B68  270A     		mov r7, #10 ; 10
30004B6A  B082     		sub sp, sp, #8
30004B6C  F8CD 1000		str r1, [sp]
30004B70  4639     		mov r1, r7
30004B72  FB90 F0F1		sdiv r0, r0, r1
30004B76  F8DD 1000		ldr r1, [sp]
30004B7A  B002     		add sp, sp, #8

#21			ST		timeRTC[3]	{LNXT:6|10|-1}
(*) INT
30004B7C  F8DF 71AC		ldr r7, [pc, #+428] ; 0x200002B2
30004B80  8038     		strh r0, [r7]

#22		
#23		
#24			(* IF placedCur[3] = -1 *)
#25			LD		placedCur[3]	{LNXT:10|-1|-1}
(*) UNDEF
30004B82  F8DF 71B8		ldr r7, [pc, #+440] ; 0x200006C6
30004B86  F9B7 0000		ldrsh r0, [r7]

#26			EQ		-1	{LNXT:10|-1|-1}
(*) INT
30004B8A  F04F 37FF		mov r7, #4294967295 ; 4294967295
30004B8E  42B8     		cmp r0, r7
30004B90  BF18 2000		nemov r0, #0
30004B94  BF08 2001		eqmov r0, #1

#27			JMPCN	$label0	{LNXT:10|11|13}
(-) BOOL
30004B98  2800     		cmp r0, #0
30004B9A  D006     		beq #12 ; 0x30004BAA


#28		
#29			(* THEN *)
#30		
#31				(* placeIndex := 3; *)
#32				MOVE		3,placeIndex	{LNXT:11|26|-1}
(*) BOOL
30004B9E  2003     		mov r0, #3 ; 3
30004BA0  F8DF 7178		ldr r7, [pc, #+376] ; 0x200002AA
30004BA4  8038     		strh r0, [r7]

#33				JMP		$label3	{LNXT:10|11|13}
(-) INT
30004BA6  E03A     		b #116 ; 0x30004C1E


#34		$label0:
#35		
#36			(* ELSIF placedCur[2] = -1 *)
#37			LD		placedCur[2]	{LNXT:13|-1|-1}
(*) UNDEF
30004BAA  F8DF 718C		ldr r7, [pc, #+396] ; 0x200006C4
30004BAE  F9B7 0000		ldrsh r0, [r7]

#38			EQ		-1	{LNXT:13|-1|-1}
(*) INT
30004BB2  F04F 37FF		mov r7, #4294967295 ; 4294967295
30004BB6  42B8     		cmp r0, r7
30004BB8  BF18 2000		nemov r0, #0
30004BBC  BF08 2001		eqmov r0, #1

#39			JMPCN	$label1	{LNXT:13|14|16}
(-) BOOL
30004BC0  2800     		cmp r0, #0
30004BC2  D006     		beq #12 ; 0x30004BD2


#40		
#41			(* THEN *)
#42		
#43				(* placeIndex := 2; *)
#44				MOVE		2,placeIndex	{LNXT:14|26|-1}
(*) BOOL
30004BC6  2002     		mov r0, #2 ; 2
30004BC8  F8DF 7150		ldr r7, [pc, #+336] ; 0x200002AA
30004BCC  8038     		strh r0, [r7]

#45				JMP		$label3	{LNXT:13|14|16}
(-) INT
30004BCE  E026     		b #76 ; 0x30004C1E


#46		$label1:
#47		
#48			(* ELSIF placedCur[1] = -1 *)
#49			LD		placedCur[1]	{LNXT:16|-1|-1}
(*) UNDEF
30004BD2  F8DF 7160		ldr r7, [pc, #+352] ; 0x200006C2
30004BD6  F9B7 0000		ldrsh r0, [r7]

#50			EQ		-1	{LNXT:16|-1|-1}
(*) INT
30004BDA  F04F 37FF		mov r7, #4294967295 ; 4294967295
30004BDE  42B8     		cmp r0, r7
30004BE0  BF18 2000		nemov r0, #0
30004BE4  BF08 2001		eqmov r0, #1

#51			JMPCN	$label2	{LNXT:16|17|19}
(-) BOOL
30004BE8  2800     		cmp r0, #0
30004BEA  D006     		beq #12 ; 0x30004BFA


#52		
#53			(* THEN *)
#54		
#55				(* placeIndex := 1; *)
#56				MOVE		1,placeIndex	{LNXT:17|26|-1}
(*) BOOL
30004BEE  2001     		mov r0, #1 ; 1
30004BF0  F8DF 7128		ldr r7, [pc, #+296] ; 0x200002AA
30004BF4  8038     		strh r0, [r7]

#57				JMP		$label3	{LNXT:16|17|19}
(-) INT
30004BF6  E012     		b #36 ; 0x30004C1E


#58		$label2:
#59		
#60			(* ELSIF placedCur[0] = -1 *)
#61			LD		placedCur[0]	{LNXT:19|-1|-1}
(*) UNDEF
30004BFA  F8DF 7134		ldr r7, [pc, #+308] ; 0x200006C0
30004BFE  F9B7 0000		ldrsh r0, [r7]

#62			EQ		-1	{LNXT:19|-1|-1}
(*) INT
30004C02  F04F 37FF		mov r7, #4294967295 ; 4294967295
30004C06  42B8     		cmp r0, r7
30004C08  BF18 2000		nemov r0, #0
30004C0C  BF08 2001		eqmov r0, #1

#63			JMPCN	$label3	{LNXT:19|20|26}
(-) BOOL
30004C10  2800     		cmp r0, #0
30004C12  D004     		beq #8 ; 0x30004C1E


#64		
#65			(* THEN *)
#66		
#67				(* placeIndex := 0; *)
#68				MOVE		0,placeIndex	{LNXT:20|26|-1}
(*) BOOL
30004C16  2000     		mov r0, #0 ; 0
30004C18  F8DF 7100		ldr r7, [pc, #+256] ; 0x200002AA
30004C1C  8038     		strh r0, [r7]

#69		
#70		$label3:
#71			(* END_IF *)
#72		
#73		
#74			(* IF placedCur[3] <> timeRTC[3] *)
#75			LD		placedCur[3]	{LNXT:26|-1|-1}
(*) UNDEF
30004C1E  F8DF 711C		ldr r7, [pc, #+284] ; 0x200006C6
30004C22  F9B7 0000		ldrsh r0, [r7]

#76			NE		timeRTC[3]	{LNXT:26|-1|-1}
(*) INT
30004C26  F8DF 7104		ldr r7, [pc, #+260] ; 0x200002B2
30004C2A  F9B7 7000		ldrsh r7, [r7]
30004C2E  42B8     		cmp r0, r7
30004C30  BF08 2000		eqmov r0, #0
30004C34  BF18 2001		nemov r0, #1

#77			JMPCN	$label4	{LNXT:26|27|29}
(-) BOOL
30004C38  2800     		cmp r0, #0
30004C3A  D007     		beq #14 ; 0x30004C4C


#78		
#79			(* THEN *)
#80		
#81				(* placedCur[3] := -1; *)
#82				MOVE		-1,placedCur[3]	{LNXT:27|32|-1}
(*) BOOL
30004C3E  F04F 30FF		mov r0, #4294967295 ; 4294967295
30004C42  F8DF 70F8		ldr r7, [pc, #+248] ; 0x200006C6
30004C46  8038     		strh r0, [r7]

#83				JMP		$label5	{LNXT:26|27|29}
(-) INT
30004C48  E007     		b #14 ; 0x30004C5A


#84		$label4:
#85		
#86			(* ELSE *)
#87		
#88				(* placedCur[3] := timeRTC[3]; *)
#89				MOVE		timeRTC[3],placedCur[3]	{LNXT:29|32|-1}
(*) INT
30004C4C  F8DF 70DC		ldr r7, [pc, #+220] ; 0x200002B2
30004C50  F9B7 0000		ldrsh r0, [r7]
30004C54  F8DF 70E4		ldr r7, [pc, #+228] ; 0x200006C6
30004C58  8038     		strh r0, [r7]

#90		
#91		$label5:
#92			(* END_IF *)
#93		
#94		
#95			(* IF placedCur[2] <> timeRTC[2] *)
#96			LD		placedCur[2]	{LNXT:32|-1|-1}
(*) UNDEF
30004C5A  F8DF 70DC		ldr r7, [pc, #+220] ; 0x200006C4
30004C5E  F9B7 0000		ldrsh r0, [r7]

#97			NE		timeRTC[2]	{LNXT:32|-1|-1}
(*) INT
30004C62  F8DF 70C4		ldr r7, [pc, #+196] ; 0x200002B0
30004C66  F9B7 7000		ldrsh r7, [r7]
30004C6A  42B8     		cmp r0, r7
30004C6C  BF08 2000		eqmov r0, #0
30004C70  BF18 2001		nemov r0, #1

#98			JMPCN	$label6	{LNXT:32|33|35}
(-) BOOL
30004C74  2800     		cmp r0, #0
30004C76  D007     		beq #14 ; 0x30004C88


#99		
#100			(* THEN *)
#101		
#102				(* placedCur[2] := -1; *)
#103				MOVE		-1,placedCur[2]	{LNXT:33|38|-1}
(*) BOOL
30004C7A  F04F 30FF		mov r0, #4294967295 ; 4294967295
30004C7E  F8DF 70B8		ldr r7, [pc, #+184] ; 0x200006C4
30004C82  8038     		strh r0, [r7]

#104				JMP		$label7	{LNXT:32|33|35}
(-) INT
30004C84  E007     		b #14 ; 0x30004C96


#105		$label6:
#106		
#107			(* ELSE *)
#108		
#109				(* placedCur[2] := timeRTC[2]; *)
#110				MOVE		timeRTC[2],placedCur[2]	{LNXT:35|38|-1}
(*) INT
30004C88  F8DF 709C		ldr r7, [pc, #+156] ; 0x200002B0
30004C8C  F9B7 0000		ldrsh r0, [r7]
30004C90  F8DF 70A4		ldr r7, [pc, #+164] ; 0x200006C4
30004C94  8038     		strh r0, [r7]

#111		
#112		$label7:
#113			(* END_IF *)
#114		
#115		
#116			(* IF placedCur[1] <> timeRTC[1] *)
#117			LD		placedCur[1]	{LNXT:38|-1|-1}
(*) UNDEF
30004C96  F8DF 709C		ldr r7, [pc, #+156] ; 0x200006C2
30004C9A  F9B7 0000		ldrsh r0, [r7]

#118			NE		timeRTC[1]	{LNXT:38|-1|-1}
(*) INT
30004C9E  F8DF 7084		ldr r7, [pc, #+132] ; 0x200002AE
30004CA2  F9B7 7000		ldrsh r7, [r7]
30004CA6  42B8     		cmp r0, r7
30004CA8  BF08 2000		eqmov r0, #0
30004CAC  BF18 2001		nemov r0, #1

#119			JMPCN	$label8	{LNXT:38|39|41}
(-) BOOL
30004CB0  2800     		cmp r0, #0
30004CB2  D007     		beq #14 ; 0x30004CC4


#120		
#121			(* THEN *)
#122		
#123				(* placedCur[1] := -1; *)
#124				MOVE		-1,placedCur[1]	{LNXT:39|44|-1}
(*) BOOL
30004CB6  F04F 30FF		mov r0, #4294967295 ; 4294967295
30004CBA  F8DF 7078		ldr r7, [pc, #+120] ; 0x200006C2
30004CBE  8038     		strh r0, [r7]

#125				JMP		$label9	{LNXT:38|39|41}
(-) INT
30004CC0  E007     		b #14 ; 0x30004CD2


#126		$label8:
#127		
#128			(* ELSE *)
#129		
#130				(* placedCur[1] := timeRTC[1]; *)
#131				MOVE		timeRTC[1],placedCur[1]	{LNXT:41|44|-1}
(*) INT
30004CC4  F8DF 705C		ldr r7, [pc, #+92] ; 0x200002AE
30004CC8  F9B7 0000		ldrsh r0, [r7]
30004CCC  F8DF 7064		ldr r7, [pc, #+100] ; 0x200006C2
30004CD0  8038     		strh r0, [r7]

#132		
#133		$label9:
#134			(* END_IF *)
#135		
#136		
#137			(* IF placedCur[0] <> timeRTC[0] *)
#138			LD		placedCur[0]	{LNXT:44|-1|-1}
(*) UNDEF
30004CD2  F8DF 705C		ldr r7, [pc, #+92] ; 0x200006C0
30004CD6  F9B7 0000		ldrsh r0, [r7]

#139			NE		timeRTC[0]	{LNXT:44|-1|-1}
(*) INT
30004CDA  F8DF 7044		ldr r7, [pc, #+68] ; 0x200002AC
30004CDE  F9B7 7000		ldrsh r7, [r7]
30004CE2  42B8     		cmp r0, r7
30004CE4  BF08 2000		eqmov r0, #0
30004CE8  BF18 2001		nemov r0, #1

#140			JMPCN	$label10	{LNXT:44|45|47}
(-) BOOL
30004CEC  2800     		cmp r0, #0
30004CEE  D007     		beq #14 ; 0x30004D00


#141		
#142			(* THEN *)
#143		
#144				(* placedCur[0] := -1; *)
#145				MOVE		-1,placedCur[0]	{LNXT:45|2|-1}
(*) BOOL
30004CF2  F04F 30FF		mov r0, #4294967295 ; 4294967295
30004CF6  F8DF 7038		ldr r7, [pc, #+56] ; 0x200006C0
30004CFA  8038     		strh r0, [r7]

#146				JMP		$label11	{LNXT:44|45|47}
(-) INT
30004CFC  E007     		b #14 ; 0x30004D0E


#147		$label10:
#148		
#149			(* ELSE *)
#150		
#151				(* placedCur[0] := timeRTC[0]; *)
#152				MOVE		timeRTC[0],placedCur[0]	{LNXT:47|2|-1}
(*) INT
30004D00  F8DF 701C		ldr r7, [pc, #+28] ; 0x200002AC
30004D04  F9B7 0000		ldrsh r0, [r7]
30004D08  F8DF 7024		ldr r7, [pc, #+36] ; 0x200006C0
30004D0C  8038     		strh r0, [r7]

30004D0E  E8BD 0FF0		ldmia sp!, { r4, r5, r6, r7, r8, r9, r10, r11 }
30004D12  F8DD E000		ldr lr, [sp]
30004D16  B002     		add sp, sp, #8

30004D18  4770     		bx lr

30004D1C  200002AA		; 0x200002AA
30004D20  200002AC		; 0x200002AC
30004D24  200002AE		; 0x200002AE
30004D28  200002B0		; 0x200002B0
30004D2C  200002B2		; 0x200002B2
30004D30  200006C0		; 0x200006C0
30004D34  200006C2		; 0x200006C2
30004D38  200006C4		; 0x200006C4
30004D3C  200006C6		; 0x200006C6
30004D40  300000F0		; 0x300000F0
30004D44  FFFFFFFF		; 0x38000006
30004D48  FFFFFFFF		; 0x38000008

END_PROGRAM


**************************************************
	Target variable image generation
**************************************************


*** INPUT:
30004D4C  4770     		bx lr


*** OUTPUT:
30004D4E  4770     		bx lr



**************************************************
	Task Slow init code
**************************************************

30004D50  B082     		sub sp, sp, #8
30004D52  F8CD E000		str lr, [sp]
30004D56  E92D 0FF0		stmdb sp!, { r4, r5, r6, r7, r8, r9, r10, r11 }

30004D5A  E8BD 0FF0		ldmia sp!, { r4, r5, r6, r7, r8, r9, r10, r11 }
30004D5E  F8DD E000		ldr lr, [sp]
30004D62  B002     		add sp, sp, #8

30004D64  4770     		bx lr



**************************************************
	Global init code
**************************************************

30004D80  B082     		sub sp, sp, #8
30004D82  F8CD E000		str lr, [sp]
30004D86  E92D 0FF0		stmdb sp!, { r4, r5, r6, r7, r8, r9, r10, r11 }

Var init: V:MAIN:curSeq = 10
30004D8A  F8DF 00B4		ldr r0, [pc, #+180] ; 0xA
30004D8E  F8DF 70F4		ldr r7, [pc, #+244] ; 0x200002B6
30004D92  8038     		strh r0, [r7]

Var init: V:MAIN:cutPositionsY = [20970, 19000, 17030, 15060, 13090, 11120, 9150, 7180, 5210, 3240]
30004D94  F8DF 00E8		ldr r0, [pc, #+232] ; 0x51EA
30004D98  F8DF 70EC		ldr r7, [pc, #+236] ; 0x200002E4
30004D9C  8038     		strh r0, [r7]

30004D9E  F8DF 00DC		ldr r0, [pc, #+220] ; 0x4A38
30004DA2  F8DF 70E8		ldr r7, [pc, #+232] ; 0x200002E6
30004DA6  8038     		strh r0, [r7]

30004DA8  F8DF 00CC		ldr r0, [pc, #+204] ; 0x4286
30004DAC  F8DF 70E0		ldr r7, [pc, #+224] ; 0x200002E8
30004DB0  8038     		strh r0, [r7]

30004DB2  F8DF 00BC		ldr r0, [pc, #+188] ; 0x3AD4
30004DB6  F8DF 70DC		ldr r7, [pc, #+220] ; 0x200002EA
30004DBA  8038     		strh r0, [r7]

30004DBC  F8DF 00A4		ldr r0, [pc, #+164] ; 0x3322
30004DC0  F8DF 70D4		ldr r7, [pc, #+212] ; 0x200002EC
30004DC4  8038     		strh r0, [r7]

30004DC6  F8DF 0098		ldr r0, [pc, #+152] ; 0x2B70
30004DCA  F8DF 70D0		ldr r7, [pc, #+208] ; 0x200002EE
30004DCE  8038     		strh r0, [r7]

30004DD0  F8DF 0084		ldr r0, [pc, #+132] ; 0x23BE
30004DD4  F8DF 70C8		ldr r7, [pc, #+200] ; 0x200002F0
30004DD8  8038     		strh r0, [r7]

30004DDA  F8DF 0074		ldr r0, [pc, #+116] ; 0x1C0C
30004DDE  F8DF 70C4		ldr r7, [pc, #+196] ; 0x200002F2
30004DE2  8038     		strh r0, [r7]

30004DE4  F8DF 0064		ldr r0, [pc, #+100] ; 0x145A
30004DE8  F8DF 70BC		ldr r7, [pc, #+188] ; 0x200002F4
30004DEC  8038     		strh r0, [r7]

30004DEE  F8DF 0058		ldr r0, [pc, #+88] ; 0xCA8
30004DF2  F8DF 70B8		ldr r7, [pc, #+184] ; 0x200002F6
30004DF6  8038     		strh r0, [r7]

Var init: V:MAIN:moveSpeed = 375
30004DF8  F8DF 0048		ldr r0, [pc, #+72] ; 0x177
30004DFC  F8DF 70B0		ldr r7, [pc, #+176] ; 0x2000036C
30004E00  8038     		strh r0, [r7]

Var init: V:MAIN:placePositionsY = [7200, 10200, 13650, 16650]
30004E02  F8DF 0050		ldr r0, [pc, #+80] ; 0x1C20
30004E06  F8DF 70AC		ldr r7, [pc, #+172] ; 0x200004F4
30004E0A  8038     		strh r0, [r7]

30004E0C  F8DF 004C		ldr r0, [pc, #+76] ; 0x27D8
30004E10  F8DF 70A4		ldr r7, [pc, #+164] ; 0x200004F6
30004E14  8038     		strh r0, [r7]

30004E16  F8DF 0050		ldr r0, [pc, #+80] ; 0x3552
30004E1A  F8DF 70A0		ldr r7, [pc, #+160] ; 0x200004F8
30004E1E  8038     		strh r0, [r7]

30004E20  F8DF 0050		ldr r0, [pc, #+80] ; 0x410A
30004E24  F8DF 7098		ldr r7, [pc, #+152] ; 0x200004FA
30004E28  8038     		strh r0, [r7]

Var init: V:MAIN:placeClearZ = 13800
30004E2A  F8DF 0040		ldr r0, [pc, #+64] ; 0x35E8
30004E2E  F8DF 7094		ldr r7, [pc, #+148] ; 0x200004FC
30004E32  8038     		strh r0, [r7]

30004E34  E8BD 0FF0		ldmia sp!, { r4, r5, r6, r7, r8, r9, r10, r11 }
30004E38  F8DD E000		ldr lr, [sp]
30004E3C  B002     		add sp, sp, #8

30004E3E  4770     		bx lr

30004E40  0000000A		; 0x0000000A
30004E44  00000177		; 0x00000177
30004E48  00000CA8		; 0x00000CA8
30004E4C  0000145A		; 0x0000145A
30004E50  00001C0C		; 0x00001C0C
30004E54  00001C20		; 0x00001C20
30004E58  000023BE		; 0x000023BE
30004E5C  000027D8		; 0x000027D8
30004E60  00002B70		; 0x00002B70
30004E64  00003322		; 0x00003322
30004E68  00003552		; 0x00003552
30004E6C  000035E8		; 0x000035E8
30004E70  00003AD4		; 0x00003AD4
30004E74  0000410A		; 0x0000410A
30004E78  00004286		; 0x00004286
30004E7C  00004A38		; 0x00004A38
30004E80  000051EA		; 0x000051EA
30004E84  200002B6		; 0x200002B6
30004E88  200002E4		; 0x200002E4
30004E8C  200002E6		; 0x200002E6
30004E90  200002E8		; 0x200002E8
30004E94  200002EA		; 0x200002EA
30004E98  200002EC		; 0x200002EC
30004E9C  200002EE		; 0x200002EE
30004EA0  200002F0		; 0x200002F0
30004EA4  200002F2		; 0x200002F2
30004EA8  200002F4		; 0x200002F4
30004EAC  200002F6		; 0x200002F6
30004EB0  2000036C		; 0x2000036C
30004EB4  200004F4		; 0x200004F4
30004EB8  200004F6		; 0x200004F6
30004EBC  200004F8		; 0x200004F8
30004EC0  200004FA		; 0x200004FA
30004EC4  200004FC		; 0x200004FC



**************************************************
	Global RETAIN init code
**************************************************

30004EC8  B082     		sub sp, sp, #8
30004ECA  F8CD E000		str lr, [sp]
30004ECE  E92D 0FF0		stmdb sp!, { r4, r5, r6, r7, r8, r9, r10, r11 }

30004ED2  E8BD 0FF0		ldmia sp!, { r4, r5, r6, r7, r8, r9, r10, r11 }
30004ED6  F8DD E000		ldr lr, [sp]
30004EDA  B002     		add sp, sp, #8

30004EDC  4770     		bx lr



**************************************************
	Task $$VirtualTables init code
**************************************************

30004EDE  B082     		sub sp, sp, #8
30004EE0  F8CD E000		str lr, [sp]
30004EE4  E92D 0FF0		stmdb sp!, { r4, r5, r6, r7, r8, r9, r10, r11 }

30004EE8  E8BD 0FF0		ldmia sp!, { r4, r5, r6, r7, r8, r9, r10, r11 }
30004EEC  F8DD E000		ldr lr, [sp]
30004EF0  B002     		add sp, sp, #8

30004EF2  4770     		bx lr



********************************************
MEMORY MAP
********************************************

Code area type:          		       main code
Start code area:          		0000000030000000h
End code area:            		0000000030005240h
Code size:                		00005240h

Start local data area:    		0000000020000298h
End local data area:      		0000000020000B5Eh
Local data size:          		000008C6h

Start retentive data area:		0000000038000800h
End retentive data area:  		0000000038000800h
Retentive data size:      		00000000h

Start bit data area:      		0000000000000000h
End bit data area:        		0000000000000000h
Bit data size:            		00000000h



********************************************
CODE ID:                                C6BA9718
DEBUG MEMO ID:                          300002EE
FULL MEMO ID:                           000062C9
********************************************
