***********************************************************************
*
*	CODE GENERATION LISTING FOR: clock
*	COMPILER VERSION: 5.22.0.29
*
***********************************************************************

**************************************************
	CODE GENERATOR SUBROUTINES
**************************************************

$$MOD:
3001E4D0  FB90 F3F1		sdiv r3, r0, r1
3001E4D4  4359     		mul r1, r1, r3
3001E4D6  EBC1 0000		rsb r0, r1, r0
3001E4DA  4770     		bx lr

$$MOD_U:
3001E4DC  FBB0 F3F1		udiv r3, r0, r1
3001E4E0  4359     		mul r1, r1, r3
3001E4E2  EBC1 0000		rsb r0, r1, r0
3001E4E6  4770     		bx lr

**************************************************
	List function: StepperFC
**************************************************

FUNCTION StepperFC : BOOL

        VAR_INPUT
XPOSIN : INT;
YPOSIN : INT;
ZPOSIN : INT;
	END_VAR

        VAR
XPos AT %QB4.4 : INT;
YPos AT %QB4.10 : INT;
ZPos AT %QB4.16 : INT;
	END_VAR

        VAR_EXTERNAL
	{G:"INPUTS"}
XPosAct AT %IB4.0 : INT;
YPosAct AT %IB4.2 : INT;
ZPosAct AT %IB4.4 : INT;
	END_VAR

END_FUNCTION

	*** Function data allocation

	Par XPOSIN: CALLER STACK FRAME AT sp+0
	Par YPOSIN: CALLER STACK FRAME AT sp+4
	Par ZPOSIN: CALLER STACK FRAME AT sp+8
	Var XPos: REGISTER _TMP_32LO
	Var YPos: REGISTER _TMP_32HI
	Var ZPos: REGISTER _GPR3

3001E4E8  466F     		mov r7, sp
3001E4EA  B084     		sub sp, sp, #16
3001E4EC  B082     		sub sp, sp, #8
3001E4EE  F8CD E000		str lr, [sp]
3001E4F2  E92D 1E50		stmdb sp!, { r4, r6, r9, r10, r11, r12 }
3001E4F6  463E     		mov r6, r7
3001E4F8  2400     		mov r4, #0

#0			{SRC:StepperFC}
#1		 
#2		  
#3			(* Network 1 *)
#4			LD		TRUE
(-) UNDEF
3001E4FA  2001     		mov r0, #1 ; 1

#5			ST		$$VAR$1
(*) BOOL
3001E4FC  F8DF 70E0		ldr r7, [pc, #+224] ; 0xFFFFFFF8
3001E500  55F0     		strb r0, [r6, +r7]

#6			JMPCN	$$LAB$1
(-) BOOL
3001E502  2800     		cmp r0, #0
3001E504  D00B     		beq #22 ; 0x3001E51E


#7			LD		XPOSIN {R:1$99}
(*) UNDEF
3001E508  F9B6 0000		ldrsh r0, [r6]

#8			EQ		XPosAct {R:1$51}
(*) INT
3001E50C  F8DF 70BC		ldr r7, [pc, #+188] ; 0x38000000
3001E510  F9B7 7000		ldrsh r7, [r7]
3001E514  42B8     		cmp r0, r7
3001E516  BF18 2000		nemov r0, #0
3001E51A  BF08 2001		eqmov r0, #1

#9		$$LAB$1:
#10			ST		$$VAR$2
(*) BOOL
3001E51E  F8DF 70BC		ldr r7, [pc, #+188] ; 0xFFFFFFF4
3001E522  55F0     		strb r0, [r6, +r7]

#11			JMPCN	$$LAB$2
(-) BOOL
3001E524  2800     		cmp r0, #0
3001E526  D00C     		beq #24 ; 0x3001E542


#12			LD		YPOSIN {R:1$97}
(*) UNDEF
3001E52A  F8DF 7098		ldr r7, [pc, #+152] ; 0x4
3001E52E  5FF0     		ldrsh r0, [r6, +r7]

#13			EQ		YPosAct {R:1$82}
(*) INT
3001E530  F8DF 709C		ldr r7, [pc, #+156] ; 0x38000002
3001E534  F9B7 7000		ldrsh r7, [r7]
3001E538  42B8     		cmp r0, r7
3001E53A  BF18 2000		nemov r0, #0
3001E53E  BF08 2001		eqmov r0, #1

#14		$$LAB$2:
#15			ST		$$VAR$3
(*) BOOL
3001E542  F8DF 7094		ldr r7, [pc, #+148] ; 0xFFFFFFF0
3001E546  55F0     		strb r0, [r6, +r7]

#16			JMPCN	$$LAB$3
(-) BOOL
3001E548  2800     		cmp r0, #0
3001E54A  D00C     		beq #24 ; 0x3001E566


#17			LD		ZPOSIN {R:1$98}
(*) UNDEF
3001E54E  F8DF 7078		ldr r7, [pc, #+120] ; 0x8
3001E552  5FF0     		ldrsh r0, [r6, +r7]

#18			EQ		ZPosAct {R:1$86}
(*) INT
3001E554  F8DF 707C		ldr r7, [pc, #+124] ; 0x38000004
3001E558  F9B7 7000		ldrsh r7, [r7]
3001E55C  42B8     		cmp r0, r7
3001E55E  BF18 2000		nemov r0, #0
3001E562  BF08 2001		eqmov r0, #1

#19		$$LAB$3:
#20			AND		StepperFC {R:1$100}
(-) BOOL
3001E566  4020     		and r0, r0, r4

#21			LD		$$VAR$1
(*) UNDEF
3001E568  F8DF 7074		ldr r7, [pc, #+116] ; 0xFFFFFFF8
3001E56C  5DF0     		ldrb r0, [r6, +r7]

#22			JMPCN	$$LAB$4
(-) BOOL
3001E56E  2800     		cmp r0, #0
3001E570  D003     		beq #6 ; 0x3001E57A


#23			LD		XPOSIN {R:1$94}
(*) UNDEF
3001E574  F9B6 0000		ldrsh r0, [r6]

#24			ST		XPos {R:1$102}
(-) INT
3001E578  4681     		mov r9, r0

#25		$$LAB$4:
#26			LD		$$VAR$1
(*) UNDEF
3001E57A  F8DF 7064		ldr r7, [pc, #+100] ; 0xFFFFFFF8
3001E57E  5DF0     		ldrb r0, [r6, +r7]

#27			LD		$$VAR$1
(*) UNDEF
3001E580  F8DF 705C		ldr r7, [pc, #+92] ; 0xFFFFFFF8
3001E584  5DF0     		ldrb r0, [r6, +r7]

#28			JMPCN	$$LAB$5
(-) BOOL
3001E586  2800     		cmp r0, #0
3001E588  D004     		beq #8 ; 0x3001E594


#29			LD		YPOSIN {R:1$95}
(*) UNDEF
3001E58C  F8DF 7034		ldr r7, [pc, #+52] ; 0x4
3001E590  5FF0     		ldrsh r0, [r6, +r7]

#30			ST		YPos {R:1$76}
(-) INT
3001E592  4682     		mov r10, r0

#31		$$LAB$5:
#32			LD		$$VAR$1
(*) UNDEF
3001E594  F8DF 7048		ldr r7, [pc, #+72] ; 0xFFFFFFF8
3001E598  5DF0     		ldrb r0, [r6, +r7]

#33			LD		$$VAR$1
(*) UNDEF
3001E59A  F8DF 7044		ldr r7, [pc, #+68] ; 0xFFFFFFF8
3001E59E  5DF0     		ldrb r0, [r6, +r7]

#34			JMPCN	$$LAB$6
(-) BOOL
3001E5A0  2800     		cmp r0, #0
3001E5A2  D004     		beq #8 ; 0x3001E5AE


#35			LD		ZPOSIN {R:1$96}
(*) UNDEF
3001E5A6  F8DF 7020		ldr r7, [pc, #+32] ; 0x8
3001E5AA  5FF0     		ldrsh r0, [r6, +r7]

#36			ST		ZPos {R:1$79}
(-) INT
3001E5AC  4683     		mov r11, r0

#37		$$LAB$6:
#38			LD		$$VAR$1
(*) UNDEF
3001E5AE  F8DF 7030		ldr r7, [pc, #+48] ; 0xFFFFFFF8
3001E5B2  5DF0     		ldrb r0, [r6, +r7]

3001E5B4  4620     		mov r0, r4
3001E5B6  E8BD 1E50		ldmia sp!, { r4, r6, r9, r10, r11, r12 }
3001E5BA  F8DD E000		ldr lr, [sp]
3001E5BE  B002     		add sp, sp, #8
3001E5C0  B004     		add sp, sp, #16

3001E5C2  4770     		bx lr

3001E5C4  00000004		; 0x00000004
3001E5C8  00000008		; 0x00000008
3001E5CC  FFFFFFFF		; 0x38000000
3001E5D0  FFFFFFFF		; 0x38000002
3001E5D4  FFFFFFFF		; 0x38000004
3001E5D8  FFFFFFF0		; 0xFFFFFFF0
3001E5DC  FFFFFFF4		; 0xFFFFFFF4
3001E5E0  FFFFFFF8		; 0xFFFFFFF8

END_FUNCTION
**************************************************
	List program: Home
**************************************************

PROGRAM Home

        VAR
XHome AT %QB4.18 : BOOL;
YHome AT %QB4.26 : BOOL;
ZHome AT %QB4.27 : BOOL;
	END_VAR

END_PROGRAM

3001E5F0  B082     		sub sp, sp, #8
3001E5F2  F8CD E000		str lr, [sp]
3001E5F6  E92D 0FF0		stmdb sp!, { r4, r5, r6, r7, r8, r9, r10, r11 }

#0			{SRC:Home}
#1		 
#2		 	(* P/N contacts management *)
#3			LD		homePB
(*) UNDEF
3001E5FA  F8DF 7190		ldr r7, [pc, #+400] ; 0x200002A5
3001E5FE  7838     		ldrb r0, [r7]

#4			ANDN	$$MEMPC$homePB
(*) BOOL
3001E600  F8DF 718C		ldr r7, [pc, #+396] ; 0x200002A6
3001E604  783F     		ldrb r7, [r7]
3001E606  2F00     		cmp r7, #0
3001E608  BF08 2701		eqmov r7, #1
3001E60C  BF18 2700		nemov r7, #0
3001E610  4038     		and r0, r0, r7

#5			ST		$$PC$homePB
(*) BOOL
3001E612  F8DF 7180		ldr r7, [pc, #+384] ; 0x200002A7
3001E616  7038     		strb r0, [r7]

#6			LD		homePB
(*) UNDEF
3001E618  F8DF 7170		ldr r7, [pc, #+368] ; 0x200002A5
3001E61C  7838     		ldrb r0, [r7]

#7			ST		$$MEMPC$homePB
(*) BOOL
3001E61E  F8DF 7170		ldr r7, [pc, #+368] ; 0x200002A6
3001E622  7038     		strb r0, [r7]

#8			LD		ZHomeDN
(*) UNDEF
3001E624  F8DF 7198		ldr r7, [pc, #+408] ; 0x3800000E
3001E628  7838     		ldrb r0, [r7]

#9			ANDN	$$MEMPC$ZHomeDN
(*) BOOL
3001E62A  F8DF 716C		ldr r7, [pc, #+364] ; 0x200002A8
3001E62E  783F     		ldrb r7, [r7]
3001E630  2F00     		cmp r7, #0
3001E632  BF08 2701		eqmov r7, #1
3001E636  BF18 2700		nemov r7, #0
3001E63A  4038     		and r0, r0, r7

#10			ST		$$PC$ZHomeDN
(*) BOOL
3001E63C  F8DF 715C		ldr r7, [pc, #+348] ; 0x200002A9
3001E640  7038     		strb r0, [r7]

#11			LD		ZHomeDN
(*) UNDEF
3001E642  F8DF 717C		ldr r7, [pc, #+380] ; 0x3800000E
3001E646  7838     		ldrb r0, [r7]

#12			ST		$$MEMPC$ZHomeDN
(*) BOOL
3001E648  F8DF 714C		ldr r7, [pc, #+332] ; 0x200002A8
3001E64C  7038     		strb r0, [r7]

#13			LD		XHomeDN
(*) UNDEF
3001E64E  F8DF 7168		ldr r7, [pc, #+360] ; 0x3800000C
3001E652  7838     		ldrb r0, [r7]

#14			ANDN	$$MEMPC$XHomeDN
(*) BOOL
3001E654  F8DF 7148		ldr r7, [pc, #+328] ; 0x200002AA
3001E658  783F     		ldrb r7, [r7]
3001E65A  2F00     		cmp r7, #0
3001E65C  BF08 2701		eqmov r7, #1
3001E660  BF18 2700		nemov r7, #0
3001E664  4038     		and r0, r0, r7

#15			ST		$$PC$XHomeDN
(*) BOOL
3001E666  F8DF 713C		ldr r7, [pc, #+316] ; 0x200002AB
3001E66A  7038     		strb r0, [r7]

#16			LD		XHomeDN
(*) UNDEF
3001E66C  F8DF 7148		ldr r7, [pc, #+328] ; 0x3800000C
3001E670  7838     		ldrb r0, [r7]

#17			ST		$$MEMPC$XHomeDN
(*) BOOL
3001E672  F8DF 712C		ldr r7, [pc, #+300] ; 0x200002AA
3001E676  7038     		strb r0, [r7]

#18			LD		YHomeDN
(*) UNDEF
3001E678  F8DF 7140		ldr r7, [pc, #+320] ; 0x3800000D
3001E67C  7838     		ldrb r0, [r7]

#19			ANDN	$$MEMPC$YHomeDN
(*) BOOL
3001E67E  F8DF 7128		ldr r7, [pc, #+296] ; 0x200002AC
3001E682  783F     		ldrb r7, [r7]
3001E684  2F00     		cmp r7, #0
3001E686  BF08 2701		eqmov r7, #1
3001E68A  BF18 2700		nemov r7, #0
3001E68E  4038     		and r0, r0, r7

#20			ST		$$PC$YHomeDN
(*) BOOL
3001E690  F8DF 7118		ldr r7, [pc, #+280] ; 0x200002AD
3001E694  7038     		strb r0, [r7]

#21			LD		YHomeDN
(*) UNDEF
3001E696  F8DF 7124		ldr r7, [pc, #+292] ; 0x3800000D
3001E69A  7838     		ldrb r0, [r7]

#22			ST		$$MEMPC$YHomeDN
(*) BOOL
3001E69C  F8DF 7108		ldr r7, [pc, #+264] ; 0x200002AC
3001E6A0  7038     		strb r0, [r7]

#23		 
#24			(* Network 1 *)
#25			LD		$$PC$homePB
(*) UNDEF
3001E6A2  F8DF 70F0		ldr r7, [pc, #+240] ; 0x200002A7
3001E6A6  7838     		ldrb r0, [r7]

#26			ST		ZHome {R:1$2}
(*) BOOL
3001E6A8  F8DF 7120		ldr r7, [pc, #+288] ; 0x3800021B
3001E6AC  7038     		strb r0, [r7]

#27		 
#28			(* Network 2 *)
#29			LD		$$PC$ZHomeDN
(*) UNDEF
3001E6AE  F8DF 70EC		ldr r7, [pc, #+236] ; 0x200002A9
3001E6B2  7838     		ldrb r0, [r7]

#30			ST		$$VAR$1
(*) BOOL
3001E6B4  F8DF 70F8		ldr r7, [pc, #+248] ; 0x200002AE
3001E6B8  7038     		strb r0, [r7]

#31			JMPCN	$$LAB$1
(-) BOOL
3001E6BA  2800     		cmp r0, #0
3001E6BC  D013     		beq #38 ; 0x3001E6E6


#32			LDP0		0 {R:2$13}
(-) BOOL
#33			StepperFC	0, 14500 {R:2$6}
(*) USINT
3001E6C0  B084     		sub sp, sp, #16
3001E6C2  2700     		mov r7, #0 ; 0
3001E6C4  F8CD 7000		str r7, [sp]
3001E6C8  2700     		mov r7, #0 ; 0
3001E6CA  F8CD 7004		str r7, [sp, #+4]
3001E6CE  F8DF 70B8		ldr r7, [pc, #+184] ; 0x38A4
3001E6D2  463F     		mov r7, r7
3001E6D4  B23F     		sxth r7, r7
3001E6D6  F8CD 7008		str r7, [sp, #+8]
3001E6DA  F8DF 40D8		ldr r4, [pc, #+216] ; 0x3001E4E8
3001E6DE  F044 0401		orr r4, r4, #1
3001E6E2  47A0     		blx r4
3001E6E4  B004     		add sp, sp, #16

#34		$$LAB$1:
#35			ST		XHome {R:2$1}
(*) BOOL
3001E6E6  F8DF 70DC		ldr r7, [pc, #+220] ; 0x38000212
3001E6EA  7038     		strb r0, [r7]

#36		 
#37			(* Network 3 *)
#38			LD		$$PC$XHomeDN
(*) UNDEF
3001E6EC  F8DF 70B4		ldr r7, [pc, #+180] ; 0x200002AB
3001E6F0  7838     		ldrb r0, [r7]

#39			ST		$$VAR$1
(*) BOOL
3001E6F2  F8DF 70BC		ldr r7, [pc, #+188] ; 0x200002AE
3001E6F6  7038     		strb r0, [r7]

#40			JMPCN	$$LAB$2
(-) BOOL
3001E6F8  2800     		cmp r0, #0
3001E6FA  D016     		beq #44 ; 0x3001E72A


#41			LDP0		6000 {R:3$13}
(-) BOOL
#42			StepperFC	0, 14500 {R:3$6}
(*) UINT
3001E6FE  B084     		sub sp, sp, #16
3001E700  F8DF 7080		ldr r7, [pc, #+128] ; 0x1770
3001E704  463F     		mov r7, r7
3001E706  B23F     		sxth r7, r7
3001E708  F8CD 7000		str r7, [sp]
3001E70C  2700     		mov r7, #0 ; 0
3001E70E  F8CD 7004		str r7, [sp, #+4]
3001E712  F8DF 7074		ldr r7, [pc, #+116] ; 0x38A4
3001E716  463F     		mov r7, r7
3001E718  B23F     		sxth r7, r7
3001E71A  F8CD 7008		str r7, [sp, #+8]
3001E71E  F8DF 4094		ldr r4, [pc, #+148] ; 0x3001E4E8
3001E722  F044 0401		orr r4, r4, #1
3001E726  47A0     		blx r4
3001E728  B004     		add sp, sp, #16

#43		$$LAB$2:
#44			LD		$$VAR$1
(*) UNDEF
3001E72A  F8DF 7084		ldr r7, [pc, #+132] ; 0x200002AE
3001E72E  7838     		ldrb r0, [r7]

#45			ST		YHome {R:3$17}
(*) BOOL
3001E730  F8DF 7094		ldr r7, [pc, #+148] ; 0x3800021A
3001E734  7038     		strb r0, [r7]

#46		 
#47			(* Network 4 *)
#48			LD		$$PC$YHomeDN
(*) UNDEF
3001E736  F8DF 7074		ldr r7, [pc, #+116] ; 0x200002AD
3001E73A  7838     		ldrb r0, [r7]

#49			ST		$$VAR$1
(*) BOOL
3001E73C  F8DF 7070		ldr r7, [pc, #+112] ; 0x200002AE
3001E740  7038     		strb r0, [r7]

#50			JMPCN	$$LAB$3
(-) BOOL
3001E742  2800     		cmp r0, #0
3001E744  D018     		beq #48 ; 0x3001E778


#51			LDP0		6000 {R:4$13}
(-) BOOL
#52			StepperFC	8000, 14500 {R:4$6}
(*) UINT
3001E748  B084     		sub sp, sp, #16
3001E74A  F8DF 7038		ldr r7, [pc, #+56] ; 0x1770
3001E74E  463F     		mov r7, r7
3001E750  B23F     		sxth r7, r7
3001E752  F8CD 7000		str r7, [sp]
3001E756  F44F 57FA		mov r7, #8000 ; 8000
3001E75A  B23F     		sxth r7, r7
3001E75C  F8CD 7004		str r7, [sp, #+4]
3001E760  F8DF 7024		ldr r7, [pc, #+36] ; 0x38A4
3001E764  463F     		mov r7, r7
3001E766  B23F     		sxth r7, r7
3001E768  F8CD 7008		str r7, [sp, #+8]
3001E76C  F8DF 4044		ldr r4, [pc, #+68] ; 0x3001E4E8
3001E770  F044 0401		orr r4, r4, #1
3001E774  47A0     		blx r4
3001E776  B004     		add sp, sp, #16

3001E778  E8BD 0FF0		ldmia sp!, { r4, r5, r6, r7, r8, r9, r10, r11 }
3001E77C  F8DD E000		ldr lr, [sp]
3001E780  B002     		add sp, sp, #8

3001E782  4770     		bx lr

3001E784  00001770		; 0x00001770
3001E788  000038A4		; 0x000038A4
3001E78C  200002A5		; 0x200002A5
3001E790  200002A6		; 0x200002A6
3001E794  200002A7		; 0x200002A7
3001E798  200002A8		; 0x200002A8
3001E79C  200002A9		; 0x200002A9
3001E7A0  200002AA		; 0x200002AA
3001E7A4  200002AB		; 0x200002AB
3001E7A8  200002AC		; 0x200002AC
3001E7AC  200002AD		; 0x200002AD
3001E7B0  200002AE		; 0x200002AE
3001E7B4  3001E4E8		; 0x3001E4E8
3001E7B8  FFFFFFFF		; 0x3800000C
3001E7BC  FFFFFFFF		; 0x3800000D
3001E7C0  FFFFFFFF		; 0x3800000E
3001E7C4  FFFFFFFF		; 0x38000212
3001E7C8  FFFFFFFF		; 0x3800021A
3001E7CC  FFFFFFFF		; 0x3800021B

END_PROGRAM


**************************************************
	Target variable image generation
**************************************************


*** INPUT:
3001E7D0  4770     		bx lr


*** OUTPUT:
3001E7D2  4770     		bx lr



**************************************************
	Task Fast init code
**************************************************

3001E7D4  B082     		sub sp, sp, #8
3001E7D6  F8CD E000		str lr, [sp]
3001E7DA  E92D 0FF0		stmdb sp!, { r4, r5, r6, r7, r8, r9, r10, r11 }

Var init: V::Home.$$PC$homePB = 1
3001E7DE  F8DF 0034		ldr r0, [pc, #+52] ; 0x1
3001E7E2  F8DF 7034		ldr r7, [pc, #+52] ; 0x200002A7
3001E7E6  7038     		strb r0, [r7]

Var init: V::Home.$$PC$ZHomeDN = 1
3001E7E8  F8DF 0028		ldr r0, [pc, #+40] ; 0x1
3001E7EC  F8DF 702C		ldr r7, [pc, #+44] ; 0x200002A9
3001E7F0  7038     		strb r0, [r7]

Var init: V::Home.$$PC$XHomeDN = 1
3001E7F2  F8DF 0020		ldr r0, [pc, #+32] ; 0x1
3001E7F6  F8DF 7028		ldr r7, [pc, #+40] ; 0x200002AB
3001E7FA  7038     		strb r0, [r7]

Var init: V::Home.$$PC$YHomeDN = 1
3001E7FC  F8DF 0014		ldr r0, [pc, #+20] ; 0x1
3001E800  F8DF 7020		ldr r7, [pc, #+32] ; 0x200002AD
3001E804  7038     		strb r0, [r7]

3001E806  E8BD 0FF0		ldmia sp!, { r4, r5, r6, r7, r8, r9, r10, r11 }
3001E80A  F8DD E000		ldr lr, [sp]
3001E80E  B002     		add sp, sp, #8

3001E810  4770     		bx lr

3001E814  00000001		; 0x00000001
3001E818  200002A7		; 0x200002A7
3001E81C  200002A9		; 0x200002A9
3001E820  200002AB		; 0x200002AB
3001E824  200002AD		; 0x200002AD

**************************************************
	List program: InitParDB
**************************************************

PROGRAM InitParDB

        VAR
warningsKiller : USINT;
dummyCrc32 : UDINT;
	END_VAR

END_PROGRAM

3001E830  B082     		sub sp, sp, #8
3001E832  F8CD E000		str lr, [sp]
3001E836  E92D 0FF0		stmdb sp!, { r4, r5, r6, r7, r8, r9, r10, r11 }

#0		{SRC:InitParDB}
#1		(*$WAITSWITCH$*)
#2		
#3			(* dummyCrc32 := 0; *)
#4			MOVE		0,dummyCrc32	{LNXT:3|5|-1}
(*) UDINT
3001E83A  2000     		mov r0, #0 ; 0
3001E83C  F8DF 7058		ldr r7, [pc, #+88] ; 0x200002B0
3001E840  6038     		str r0, [r7]

#5		
#6			(* warningsKiller := sysDBase_SetExtTable( TO_DWORD( 0 ), 0, 0, 0, 0, 0, 0, 0, 0, 0, 0 ); *)
#7			LDP0		0	{LNXT:5|3|-1}
(-) UDINT
#8			TO_DWORD	{LNXT:5|3|-1}
(-) USINT
3001E842  2000     		mov r0, #0 ; 0

#9			sysDBase_SetExtTable		0, 0, 0, 0, 0, 0, 0, 0, 0, 0	{LNXT:5|3|-1}
(*) DWORD
3001E844  B088     		sub sp, sp, #32
3001E846  2700     		mov r7, #0 ; 0
3001E848  4639     		mov r1, r7
3001E84A  2700     		mov r7, #0 ; 0
3001E84C  463A     		mov r2, r7
3001E84E  2700     		mov r7, #0 ; 0
3001E850  463B     		mov r3, r7
3001E852  2700     		mov r7, #0 ; 0
3001E854  F8CD 7000		str r7, [sp]
3001E858  2700     		mov r7, #0 ; 0
3001E85A  F8CD 7004		str r7, [sp, #+4]
3001E85E  2700     		mov r7, #0 ; 0
3001E860  F8CD 7008		str r7, [sp, #+8]
3001E864  2700     		mov r7, #0 ; 0
3001E866  F8CD 700C		str r7, [sp, #+12]
3001E86A  2700     		mov r7, #0 ; 0
3001E86C  F8CD 7010		str r7, [sp, #+16]
3001E870  2700     		mov r7, #0 ; 0
3001E872  F8CD 7014		str r7, [sp, #+20]
3001E876  2700     		mov r7, #0 ; 0
3001E878  F8CD 7018		str r7, [sp, #+24]
3001E87C  F8DF 4010		ldr r4, [pc, #+16] ; 0x8076C9D
3001E880  F044 0401		orr r4, r4, #1
3001E884  47A0     		blx r4
3001E886  B008     		add sp, sp, #32

#10			ST		warningsKiller	{LNXT:5|3|-1}
(*) USINT
3001E888  F8DF 7008		ldr r7, [pc, #+8] ; 0x200002AF
3001E88C  7038     		strb r0, [r7]

3001E88E  E005     		b #10

3001E890  FFFFFFFF		; 0x08076C9D
3001E894  200002AF		; 0x200002AF
3001E898  200002B0		; 0x200002B0

END_PROGRAM
**************************************************
	List program: $$IOConfig
**************************************************

PROGRAM $$IOConfig

        VAR
warningsKiller : BOOL;
	END_VAR

END_PROGRAM

#0		{SRC:$$IOConfig}
#1		(*$WAITSWITCH$*)
#2		
#3			(* warningsKiller := sysCfgDOs(0); *)
#4			LDP0		0	{LNXT:4|7|-1}
(-) UDINT
#5			sysCfgDOs	{LNXT:4|7|-1}
(*) USINT
3001E89C  2700     		mov r7, #0 ; 0
3001E89E  4638     		mov r0, r7
3001E8A0  F8DF 4218		ldr r4, [pc, #+536] ; 0x807DED9
3001E8A4  F044 0401		orr r4, r4, #1
3001E8A8  47A0     		blx r4

#6			ST		warningsKiller	{LNXT:4|7|-1}
(*) BOOL
3001E8AA  F8DF 722C		ldr r7, [pc, #+556] ; 0x200002A4
3001E8AE  7038     		strb r0, [r7]

#7		
#8			(* warningsKiller := sysCfgAIs(0); *)
#9			LDP0		0	{LNXT:7|10|-1}
(-) BOOL
#10			sysCfgAIs	{LNXT:7|10|-1}
(*) USINT
3001E8B0  2700     		mov r7, #0 ; 0
3001E8B2  4638     		mov r0, r7
3001E8B4  F8DF 4208		ldr r4, [pc, #+520] ; 0x807DEF9
3001E8B8  F044 0401		orr r4, r4, #1
3001E8BC  47A0     		blx r4

#11			ST		warningsKiller	{LNXT:7|10|-1}
(*) BOOL
3001E8BE  F8DF 7218		ldr r7, [pc, #+536] ; 0x200002A4
3001E8C2  7038     		strb r0, [r7]

#12		
#13			(* warningsKiller := sysCfgAO(0, 0); *)
#14			LDP0		0	{LNXT:10|11|-1}
(-) BOOL
#15			sysCfgAO		0	{LNXT:10|11|-1}
(*) USINT
3001E8C4  2700     		mov r7, #0 ; 0
3001E8C6  4638     		mov r0, r7
3001E8C8  2700     		mov r7, #0 ; 0
3001E8CA  4639     		mov r1, r7
3001E8CC  F8DF 41F4		ldr r4, [pc, #+500] ; 0x807DF29
3001E8D0  F044 0401		orr r4, r4, #1
3001E8D4  47A0     		blx r4

#16			ST		warningsKiller	{LNXT:10|11|-1}
(*) BOOL
3001E8D6  F8DF 7200		ldr r7, [pc, #+512] ; 0x200002A4
3001E8DA  7038     		strb r0, [r7]

#17		
#18			(* warningsKiller := sysCfgAO(1, 0); *)
#19			LDP0		1	{LNXT:11|12|-1}
(-) BOOL
#20			sysCfgAO		0	{LNXT:11|12|-1}
(*) USINT
3001E8DC  2701     		mov r7, #1 ; 1
3001E8DE  4638     		mov r0, r7
3001E8E0  2700     		mov r7, #0 ; 0
3001E8E2  4639     		mov r1, r7
3001E8E4  F8DF 41DC		ldr r4, [pc, #+476] ; 0x807DF29
3001E8E8  F044 0401		orr r4, r4, #1
3001E8EC  47A0     		blx r4

#21			ST		warningsKiller	{LNXT:11|12|-1}
(*) BOOL
3001E8EE  F8DF 71E8		ldr r7, [pc, #+488] ; 0x200002A4
3001E8F2  7038     		strb r0, [r7]

#22		
#23			(* warningsKiller := sysCfgAO(2, 0); *)
#24			LDP0		2	{LNXT:12|13|-1}
(-) BOOL
#25			sysCfgAO		0	{LNXT:12|13|-1}
(*) USINT
3001E8F4  2702     		mov r7, #2 ; 2
3001E8F6  4638     		mov r0, r7
3001E8F8  2700     		mov r7, #0 ; 0
3001E8FA  4639     		mov r1, r7
3001E8FC  F8DF 41C4		ldr r4, [pc, #+452] ; 0x807DF29
3001E900  F044 0401		orr r4, r4, #1
3001E904  47A0     		blx r4

#26			ST		warningsKiller	{LNXT:12|13|-1}
(*) BOOL
3001E906  F8DF 71D0		ldr r7, [pc, #+464] ; 0x200002A4
3001E90A  7038     		strb r0, [r7]

#27		
#28			(* warningsKiller := sysCfgAO(3, 0); *)
#29			LDP0		3	{LNXT:13|16|-1}
(-) BOOL
#30			sysCfgAO		0	{LNXT:13|16|-1}
(*) USINT
3001E90C  2703     		mov r7, #3 ; 3
3001E90E  4638     		mov r0, r7
3001E910  2700     		mov r7, #0 ; 0
3001E912  4639     		mov r1, r7
3001E914  F8DF 41AC		ldr r4, [pc, #+428] ; 0x807DF29
3001E918  F044 0401		orr r4, r4, #1
3001E91C  47A0     		blx r4

#31			ST		warningsKiller	{LNXT:13|16|-1}
(*) BOOL
3001E91E  F8DF 71B8		ldr r7, [pc, #+440] ; 0x200002A4
3001E922  7038     		strb r0, [r7]

#32		
#33			(* warningsKiller := sysCfgProgDIOs(0); *)
#34			LDP0		0	{LNXT:16|19|-1}
(-) BOOL
#35			sysCfgProgDIOs	{LNXT:16|19|-1}
(*) USINT
3001E924  2700     		mov r7, #0 ; 0
3001E926  4638     		mov r0, r7
3001E928  F8DF 419C		ldr r4, [pc, #+412] ; 0x807DF2D
3001E92C  F044 0401		orr r4, r4, #1
3001E930  47A0     		blx r4

#36			ST		warningsKiller	{LNXT:16|19|-1}
(*) BOOL
3001E932  F8DF 71A4		ldr r7, [pc, #+420] ; 0x200002A4
3001E936  7038     		strb r0, [r7]

#37		
#38			(* warningsKiller := sysCfgProgDIO(0, 2); *)
#39			LDP0		0	{LNXT:19|20|-1}
(-) BOOL
#40			sysCfgProgDIO		2	{LNXT:19|20|-1}
(*) USINT
3001E938  2700     		mov r7, #0 ; 0
3001E93A  4638     		mov r0, r7
3001E93C  2102     		mov r1, #2 ; 2
3001E93E  F8DF 418C		ldr r4, [pc, #+396] ; 0x807DF4D
3001E942  F044 0401		orr r4, r4, #1
3001E946  47A0     		blx r4

#41			ST		warningsKiller	{LNXT:19|20|-1}
(*) BOOL
3001E948  F8DF 718C		ldr r7, [pc, #+396] ; 0x200002A4
3001E94C  7038     		strb r0, [r7]

#42		
#43			(* warningsKiller := sysCfgProgDIO(1, 2); *)
#44			LDP0		1	{LNXT:20|21|-1}
(-) BOOL
#45			sysCfgProgDIO		2	{LNXT:20|21|-1}
(*) USINT
3001E94E  2701     		mov r7, #1 ; 1
3001E950  4638     		mov r0, r7
3001E952  2102     		mov r1, #2 ; 2
3001E954  F8DF 4174		ldr r4, [pc, #+372] ; 0x807DF4D
3001E958  F044 0401		orr r4, r4, #1
3001E95C  47A0     		blx r4

#46			ST		warningsKiller	{LNXT:20|21|-1}
(*) BOOL
3001E95E  F8DF 7178		ldr r7, [pc, #+376] ; 0x200002A4
3001E962  7038     		strb r0, [r7]

#47		
#48			(* warningsKiller := sysCfgProgDIO(2, 2); *)
#49			LDP0		2	{LNXT:21|22|-1}
(-) BOOL
#50			sysCfgProgDIO		2	{LNXT:21|22|-1}
(*) USINT
3001E964  2702     		mov r7, #2 ; 2
3001E966  4638     		mov r0, r7
3001E968  2102     		mov r1, #2 ; 2
3001E96A  F8DF 4160		ldr r4, [pc, #+352] ; 0x807DF4D
3001E96E  F044 0401		orr r4, r4, #1
3001E972  47A0     		blx r4

#51			ST		warningsKiller	{LNXT:21|22|-1}
(*) BOOL
3001E974  F8DF 7160		ldr r7, [pc, #+352] ; 0x200002A4
3001E978  7038     		strb r0, [r7]

#52		
#53			(* warningsKiller := sysCfgProgDIO(3, 2); *)
#54			LDP0		3	{LNXT:22|23|-1}
(-) BOOL
#55			sysCfgProgDIO		2	{LNXT:22|23|-1}
(*) USINT
3001E97A  2703     		mov r7, #3 ; 3
3001E97C  4638     		mov r0, r7
3001E97E  2102     		mov r1, #2 ; 2
3001E980  F8DF 4148		ldr r4, [pc, #+328] ; 0x807DF4D
3001E984  F044 0401		orr r4, r4, #1
3001E988  47A0     		blx r4

#56			ST		warningsKiller	{LNXT:22|23|-1}
(*) BOOL
3001E98A  F8DF 714C		ldr r7, [pc, #+332] ; 0x200002A4
3001E98E  7038     		strb r0, [r7]

#57		
#58			(* warningsKiller := sysCfgProgDIO(4, 2); *)
#59			LDP0		4	{LNXT:23|24|-1}
(-) BOOL
#60			sysCfgProgDIO		2	{LNXT:23|24|-1}
(*) USINT
3001E990  2704     		mov r7, #4 ; 4
3001E992  4638     		mov r0, r7
3001E994  2102     		mov r1, #2 ; 2
3001E996  F8DF 4134		ldr r4, [pc, #+308] ; 0x807DF4D
3001E99A  F044 0401		orr r4, r4, #1
3001E99E  47A0     		blx r4

#61			ST		warningsKiller	{LNXT:23|24|-1}
(*) BOOL
3001E9A0  F8DF 7134		ldr r7, [pc, #+308] ; 0x200002A4
3001E9A4  7038     		strb r0, [r7]

#62		
#63			(* warningsKiller := sysCfgProgDIO(5, 2); *)
#64			LDP0		5	{LNXT:24|25|-1}
(-) BOOL
#65			sysCfgProgDIO		2	{LNXT:24|25|-1}
(*) USINT
3001E9A6  2705     		mov r7, #5 ; 5
3001E9A8  4638     		mov r0, r7
3001E9AA  2102     		mov r1, #2 ; 2
3001E9AC  F8DF 411C		ldr r4, [pc, #+284] ; 0x807DF4D
3001E9B0  F044 0401		orr r4, r4, #1
3001E9B4  47A0     		blx r4

#66			ST		warningsKiller	{LNXT:24|25|-1}
(*) BOOL
3001E9B6  F8DF 7120		ldr r7, [pc, #+288] ; 0x200002A4
3001E9BA  7038     		strb r0, [r7]

#67		
#68			(* warningsKiller := sysCfgProgDIO(6, 0); *)
#69			LDP0		6	{LNXT:25|26|-1}
(-) BOOL
#70			sysCfgProgDIO		0	{LNXT:25|26|-1}
(*) USINT
3001E9BC  2706     		mov r7, #6 ; 6
3001E9BE  4638     		mov r0, r7
3001E9C0  2100     		mov r1, #0 ; 0
3001E9C2  F8DF 4108		ldr r4, [pc, #+264] ; 0x807DF4D
3001E9C6  F044 0401		orr r4, r4, #1
3001E9CA  47A0     		blx r4

#71			ST		warningsKiller	{LNXT:25|26|-1}
(*) BOOL
3001E9CC  F8DF 7108		ldr r7, [pc, #+264] ; 0x200002A4
3001E9D0  7038     		strb r0, [r7]

#72		
#73			(* warningsKiller := sysCfgProgDIO(7, 0); *)
#74			LDP0		7	{LNXT:26|27|-1}
(-) BOOL
#75			sysCfgProgDIO		0	{LNXT:26|27|-1}
(*) USINT
3001E9D2  2707     		mov r7, #7 ; 7
3001E9D4  4638     		mov r0, r7
3001E9D6  2100     		mov r1, #0 ; 0
3001E9D8  F8DF 40F0		ldr r4, [pc, #+240] ; 0x807DF4D
3001E9DC  F044 0401		orr r4, r4, #1
3001E9E0  47A0     		blx r4

#76			ST		warningsKiller	{LNXT:26|27|-1}
(*) BOOL
3001E9E2  F8DF 70F4		ldr r7, [pc, #+244] ; 0x200002A4
3001E9E6  7038     		strb r0, [r7]

#77		
#78			(* warningsKiller := sysCfgProgDIO(8, 0); *)
#79			LDP0		8	{LNXT:27|28|-1}
(-) BOOL
#80			sysCfgProgDIO		0	{LNXT:27|28|-1}
(*) USINT
3001E9E8  2708     		mov r7, #8 ; 8
3001E9EA  4638     		mov r0, r7
3001E9EC  2100     		mov r1, #0 ; 0
3001E9EE  F8DF 40DC		ldr r4, [pc, #+220] ; 0x807DF4D
3001E9F2  F044 0401		orr r4, r4, #1
3001E9F6  47A0     		blx r4

#81			ST		warningsKiller	{LNXT:27|28|-1}
(*) BOOL
3001E9F8  F8DF 70DC		ldr r7, [pc, #+220] ; 0x200002A4
3001E9FC  7038     		strb r0, [r7]

#82		
#83			(* warningsKiller := sysCfgProgDIO(9, 0); *)
#84			LDP0		9	{LNXT:28|29|-1}
(-) BOOL
#85			sysCfgProgDIO		0	{LNXT:28|29|-1}
(*) USINT
3001E9FE  2709     		mov r7, #9 ; 9
3001EA00  4638     		mov r0, r7
3001EA02  2100     		mov r1, #0 ; 0
3001EA04  F8DF 40C4		ldr r4, [pc, #+196] ; 0x807DF4D
3001EA08  F044 0401		orr r4, r4, #1
3001EA0C  47A0     		blx r4

#86			ST		warningsKiller	{LNXT:28|29|-1}
(*) BOOL
3001EA0E  F8DF 70C8		ldr r7, [pc, #+200] ; 0x200002A4
3001EA12  7038     		strb r0, [r7]

#87		
#88			(* warningsKiller := sysCfgProgDIO(10, 0); *)
#89			LDP0		10	{LNXT:29|30|-1}
(-) BOOL
#90			sysCfgProgDIO		0	{LNXT:29|30|-1}
(*) USINT
3001EA14  270A     		mov r7, #10 ; 10
3001EA16  4638     		mov r0, r7
3001EA18  2100     		mov r1, #0 ; 0
3001EA1A  F8DF 40B0		ldr r4, [pc, #+176] ; 0x807DF4D
3001EA1E  F044 0401		orr r4, r4, #1
3001EA22  47A0     		blx r4

#91			ST		warningsKiller	{LNXT:29|30|-1}
(*) BOOL
3001EA24  F8DF 70B0		ldr r7, [pc, #+176] ; 0x200002A4
3001EA28  7038     		strb r0, [r7]

#92		
#93			(* warningsKiller := sysCfgProgDIO(11, 0); *)
#94			LDP0		11	{LNXT:30|33|-1}
(-) BOOL
#95			sysCfgProgDIO		0	{LNXT:30|33|-1}
(*) USINT
3001EA2A  270B     		mov r7, #11 ; 11
3001EA2C  4638     		mov r0, r7
3001EA2E  2100     		mov r1, #0 ; 0
3001EA30  F8DF 4098		ldr r4, [pc, #+152] ; 0x807DF4D
3001EA34  F044 0401		orr r4, r4, #1
3001EA38  47A0     		blx r4

#96			ST		warningsKiller	{LNXT:30|33|-1}
(*) BOOL
3001EA3A  F8DF 709C		ldr r7, [pc, #+156] ; 0x200002A4
3001EA3E  7038     		strb r0, [r7]

#97		
#98			(* warningsKiller := sysCfgTempProbes(0); *)
#99			LDP0		0	{LNXT:33|36|-1}
(-) BOOL
#100			sysCfgTempProbes	{LNXT:33|36|-1}
(*) USINT
3001EA40  2700     		mov r7, #0 ; 0
3001EA42  4638     		mov r0, r7
3001EA44  F8DF 4088		ldr r4, [pc, #+136] ; 0x807DF61
3001EA48  F044 0401		orr r4, r4, #1
3001EA4C  47A0     		blx r4

#101			ST		warningsKiller	{LNXT:33|36|-1}
(*) BOOL
3001EA4E  F8DF 7088		ldr r7, [pc, #+136] ; 0x200002A4
3001EA52  7038     		strb r0, [r7]

#102		
#103			(* warningsKiller := sysCfgTempProbe(0, FALSE, 400.0, 100.0); *)
#104			LDP0		0	{LNXT:36|37|-1}
(-) BOOL
#105			sysCfgTempProbe		FALSE, 400.0, 100.0	{LNXT:36|37|-1}
(*) USINT
3001EA54  2700     		mov r7, #0 ; 0
3001EA56  4638     		mov r0, r7
3001EA58  2100     		mov r1, #0 ; 0
3001EA5A  F8DF 2084		ldr r2, [pc, #+132] ; 0x43C80000 = 400.000000
3001EA5E  F8DF 307C		ldr r3, [pc, #+124] ; 0x42C80000 = 100.000000
3001EA62  F8DF 4070		ldr r4, [pc, #+112] ; 0x807DFC5
3001EA66  F044 0401		orr r4, r4, #1
3001EA6A  47A0     		blx r4

#106			ST		warningsKiller	{LNXT:36|37|-1}
(*) BOOL
3001EA6C  F8DF 7068		ldr r7, [pc, #+104] ; 0x200002A4
3001EA70  7038     		strb r0, [r7]

#107		
#108			(* warningsKiller := sysCfgTempProbe(1, FALSE, 400.0, 100.0); *)
#109			LDP0		1	{LNXT:37|38|-1}
(-) BOOL
#110			sysCfgTempProbe		FALSE, 400.0, 100.0	{LNXT:37|38|-1}
(*) USINT
3001EA72  2701     		mov r7, #1 ; 1
3001EA74  4638     		mov r0, r7
3001EA76  2100     		mov r1, #0 ; 0
3001EA78  F8DF 2064		ldr r2, [pc, #+100] ; 0x43C80000 = 400.000000
3001EA7C  F8DF 305C		ldr r3, [pc, #+92] ; 0x42C80000 = 100.000000
3001EA80  F8DF 4050		ldr r4, [pc, #+80] ; 0x807DFC5
3001EA84  F044 0401		orr r4, r4, #1
3001EA88  47A0     		blx r4

#111			ST		warningsKiller	{LNXT:37|38|-1}
(*) BOOL
3001EA8A  F8DF 704C		ldr r7, [pc, #+76] ; 0x200002A4
3001EA8E  7038     		strb r0, [r7]

#112		
#113			(* warningsKiller := sysCfgTempProbe(2, FALSE, 400.0, 100.0); *)
#114			LDP0		2	{LNXT:38|4|-1}
(-) BOOL
#115			sysCfgTempProbe		FALSE, 400.0, 100.0	{LNXT:38|4|-1}
(*) USINT
3001EA90  2702     		mov r7, #2 ; 2
3001EA92  4638     		mov r0, r7
3001EA94  2100     		mov r1, #0 ; 0
3001EA96  F8DF 2048		ldr r2, [pc, #+72] ; 0x43C80000 = 400.000000
3001EA9A  F8DF 3040		ldr r3, [pc, #+64] ; 0x42C80000 = 100.000000
3001EA9E  F8DF 4034		ldr r4, [pc, #+52] ; 0x807DFC5
3001EAA2  F044 0401		orr r4, r4, #1
3001EAA6  47A0     		blx r4

#116			ST		warningsKiller	{LNXT:38|4|-1}
(*) BOOL
3001EAA8  F8DF 702C		ldr r7, [pc, #+44] ; 0x200002A4
3001EAAC  7038     		strb r0, [r7]

3001EAAE  E8BD 0FF0		ldmia sp!, { r4, r5, r6, r7, r8, r9, r10, r11 }
3001EAB2  F8DD E000		ldr lr, [sp]
3001EAB6  B002     		add sp, sp, #8

3001EAB8  4770     		bx lr

3001EABC  FFFFFFFF		; 0x0807DED9
3001EAC0  FFFFFFFF		; 0x0807DEF9
3001EAC4  FFFFFFFF		; 0x0807DF29
3001EAC8  FFFFFFFF		; 0x0807DF2D
3001EACC  FFFFFFFF		; 0x0807DF4D
3001EAD0  FFFFFFFF		; 0x0807DF61
3001EAD4  FFFFFFFF		; 0x0807DFC5
3001EAD8  200002A4		; 0x200002A4
3001EADC  42C80000		; 0x42C80000
3001EAE0  43C80000		; 0x43C80000

END_PROGRAM


**************************************************
	Target variable image generation
**************************************************


*** INPUT:
3001EAE4  4770     		bx lr


*** OUTPUT:
3001EAE6  4770     		bx lr



**************************************************
	Task Init init code
**************************************************

3001EAE8  B082     		sub sp, sp, #8
3001EAEA  F8CD E000		str lr, [sp]
3001EAEE  E92D 0FF0		stmdb sp!, { r4, r5, r6, r7, r8, r9, r10, r11 }

3001EAF2  E8BD 0FF0		ldmia sp!, { r4, r5, r6, r7, r8, r9, r10, r11 }
3001EAF6  F8DD E000		ldr lr, [sp]
3001EAFA  B002     		add sp, sp, #8

3001EAFC  4770     		bx lr



**************************************************
	Global init code
**************************************************

3001EB10  B082     		sub sp, sp, #8
3001EB12  F8CD E000		str lr, [sp]
3001EB16  E92D 0FF0		stmdb sp!, { r4, r5, r6, r7, r8, r9, r10, r11 }

3001EB1A  E8BD 0FF0		ldmia sp!, { r4, r5, r6, r7, r8, r9, r10, r11 }
3001EB1E  F8DD E000		ldr lr, [sp]
3001EB22  B002     		add sp, sp, #8

3001EB24  4770     		bx lr



**************************************************
	Global RETAIN init code
**************************************************

3001EB26  B082     		sub sp, sp, #8
3001EB28  F8CD E000		str lr, [sp]
3001EB2C  E92D 0FF0		stmdb sp!, { r4, r5, r6, r7, r8, r9, r10, r11 }

3001EB30  E8BD 0FF0		ldmia sp!, { r4, r5, r6, r7, r8, r9, r10, r11 }
3001EB34  F8DD E000		ldr lr, [sp]
3001EB38  B002     		add sp, sp, #8

3001EB3A  4770     		bx lr



**************************************************
	Task $$VirtualTables init code
**************************************************

3001EB3C  B082     		sub sp, sp, #8
3001EB3E  F8CD E000		str lr, [sp]
3001EB42  E92D 0FF0		stmdb sp!, { r4, r5, r6, r7, r8, r9, r10, r11 }

3001EB46  E8BD 0FF0		ldmia sp!, { r4, r5, r6, r7, r8, r9, r10, r11 }
3001EB4A  F8DD E000		ldr lr, [sp]
3001EB4E  B002     		add sp, sp, #8

3001EB50  4770     		bx lr



********************************************
MEMORY MAP
********************************************

Code area type:          		       main code
Start code area:          		000000003001E400h
End code area:            		000000003001ED64h
Code size:                		00000964h

Start local data area:    		0000000020000298h
End local data area:      		00000000200002B4h
Local data size:          		0000001Ch

Start retentive data area:		0000000038000800h
End retentive data area:  		0000000038000800h
Retentive data size:      		00000000h

Start bit data area:      		0000000000000000h
End bit data area:        		0000000000000000h
Bit data size:            		00000000h



********************************************
CODE ID:                                94A213DD
DEBUG MEMO ID:                          3001E6EE
FULL MEMO ID:                           0000DE6C
********************************************
